---
triple:          'arm64-apple-darwin'
binary-path:     '/Users/nghiemdinhbach/Documents/MyProject/Flutter/ChatDiMiniAppFlutter/chatdi_mini_module/Release/Release/iphoneos/Release-iphoneos/isar_community_flutter_libs/isar_community_flutter_libs.framework/isar_community_flutter_libs'
relocations:
  - { offset: 0x872A8, size: 0x8, addend: 0x0, symName: _isar_community_flutter_libsVersionString, symObjAddr: 0x0, symBinAddr: 0xCE9C0, symSize: 0x0 }
  - { offset: 0x872DD, size: 0x8, addend: 0x0, symName: _isar_community_flutter_libsVersionNumber, symObjAddr: 0x40, symBinAddr: 0xCEA00, symSize: 0x0 }
  - { offset: 0x8731A, size: 0x8, addend: 0x0, symName: '+[IsarFlutterLibsPlugin registerWithRegistrar:]', symObjAddr: 0x0, symBinAddr: 0x4000, symSize: 0xC }
  - { offset: 0x87328, size: 0x8, addend: 0x0, symName: '+[IsarFlutterLibsPlugin registerWithRegistrar:]', symObjAddr: 0x0, symBinAddr: 0x4000, symSize: 0xC }
  - { offset: 0x8754E, size: 0x8, addend: 0x0, symName: '_$sypSgWOh', symObjAddr: 0x44, symBinAddr: 0x4050, symSize: 0x48 }
  - { offset: 0x87562, size: 0x8, addend: 0x0, symName: ___swift_instantiateConcreteTypeFromMangledNameV2, symObjAddr: 0x8C, symBinAddr: 0x4098, symSize: 0x50 }
  - { offset: 0x87581, size: 0x8, addend: 0x0, symName: '_$s27isar_community_flutter_libs26SwiftIsarFlutterLibsPluginCMa', symObjAddr: 0x238, symBinAddr: 0x4244, symSize: 0x20 }
  - { offset: 0x87595, size: 0x8, addend: 0x0, symName: '_$sypSgWOc', symObjAddr: 0x308, symBinAddr: 0x4314, symSize: 0x50 }
  - { offset: 0x875A9, size: 0x8, addend: 0x0, symName: ___swift_project_boxed_opaque_existential_0, symObjAddr: 0x358, symBinAddr: 0x4364, symSize: 0x24 }
  - { offset: 0x875BD, size: 0x8, addend: 0x0, symName: ___swift_destroy_boxed_opaque_existential_0, symObjAddr: 0x37C, symBinAddr: 0x4388, symSize: 0x20 }
  - { offset: 0x8761A, size: 0x8, addend: 0x0, symName: '_$s27isar_community_flutter_libs26SwiftIsarFlutterLibsPluginC8register4withySo0gI9Registrar_p_tFZ', symObjAddr: 0x0, symBinAddr: 0x400C, symSize: 0x4 }
  - { offset: 0x8764D, size: 0x8, addend: 0x0, symName: '_$s27isar_community_flutter_libs26SwiftIsarFlutterLibsPluginC8register4withySo0gI9Registrar_p_tFZTo', symObjAddr: 0x4, symBinAddr: 0x4010, symSize: 0x4 }
  - { offset: 0x8766D, size: 0x8, addend: 0x0, symName: '_$s27isar_community_flutter_libs26SwiftIsarFlutterLibsPluginC6handle_6resultySo0G10MethodCallC_yypSgctF', symObjAddr: 0x8, symBinAddr: 0x4014, symSize: 0x3C }
  - { offset: 0x876DB, size: 0x8, addend: 0x0, symName: '_$s27isar_community_flutter_libs26SwiftIsarFlutterLibsPluginC6handle_6resultySo0G10MethodCallC_yypSgctFTo', symObjAddr: 0xDC, symBinAddr: 0x40E8, symSize: 0x104 }
  - { offset: 0x8770B, size: 0x8, addend: 0x0, symName: '_$s27isar_community_flutter_libs26SwiftIsarFlutterLibsPluginC28dummyMethodToEnforceBundlingyyF', symObjAddr: 0x1E0, symBinAddr: 0x41EC, symSize: 0x8 }
  - { offset: 0x8772C, size: 0x8, addend: 0x0, symName: '_$s27isar_community_flutter_libs26SwiftIsarFlutterLibsPluginCACycfC', symObjAddr: 0x1E8, symBinAddr: 0x41F4, symSize: 0x20 }
  - { offset: 0x87740, size: 0x8, addend: 0x0, symName: '_$s27isar_community_flutter_libs26SwiftIsarFlutterLibsPluginCACycfc', symObjAddr: 0x208, symBinAddr: 0x4214, symSize: 0x30 }
  - { offset: 0x87773, size: 0x8, addend: 0x0, symName: '_$s27isar_community_flutter_libs26SwiftIsarFlutterLibsPluginCACycfcTo', symObjAddr: 0x258, symBinAddr: 0x4264, symSize: 0x3C }
  - { offset: 0x877A8, size: 0x8, addend: 0x0, symName: '_$s27isar_community_flutter_libs26SwiftIsarFlutterLibsPluginCfD', symObjAddr: 0x294, symBinAddr: 0x42A0, symSize: 0x30 }
  - { offset: 0x87A0D, size: 0x8, addend: 0x0, symName: '__ZN5alloc7raw_vec19RawVec$LT$T$C$A$GT$8grow_one17h5c1e4701af62691cE', symObjAddr: 0x26F48, symBinAddr: 0x2AB20, symSize: 0x9C }
  - { offset: 0x87B69, size: 0x8, addend: 0x0, symName: __ZN5alloc7raw_vec11finish_grow17h36fd48af23daa7feE, symObjAddr: 0x26FE4, symBinAddr: 0xB03F0, symSize: 0x64 }
  - { offset: 0x87C12, size: 0x8, addend: 0x0, symName: __ZN5alloc7raw_vec12handle_error17h902fd9be81c355dbE, symObjAddr: 0x27048, symBinAddr: 0xB0454, symSize: 0x18 }
  - { offset: 0x87C53, size: 0x8, addend: 0x0, symName: __ZN5alloc7raw_vec17capacity_overflow17hd4c9f746d969546dE, symObjAddr: 0x27078, symBinAddr: 0xB0484, symSize: 0x34 }
  - { offset: 0x87C8F, size: 0x8, addend: 0x0, symName: '__ZN5alloc7raw_vec20RawVecInner$LT$A$GT$7reserve21do_reserve_and_handle17hda500f94eda776a1E', symObjAddr: 0x270AC, symBinAddr: 0xB04B8, symSize: 0xAC }
  - { offset: 0x87E6A, size: 0x8, addend: 0x0, symName: __ZN5alloc5alloc18handle_alloc_error17h6124ba9cf41f1a87E, symObjAddr: 0x27060, symBinAddr: 0xB046C, symSize: 0x18 }
  - { offset: 0x880A7, size: 0x8, addend: 0x0, symName: '__ZN5alloc3vec16Vec$LT$T$C$A$GT$6remove13assert_failed17h682af97be3f47ce7E', symObjAddr: 0x2827C, symBinAddr: 0xB0564, symSize: 0x4C }
  - { offset: 0x880EF, size: 0x8, addend: 0x0, symName: __ZN5alloc3ffi5c_str7CString19_from_vec_unchecked17h938c353f97a5f8f9E, symObjAddr: 0x27158, symBinAddr: 0x2ABBC, symSize: 0x128 }
  - { offset: 0x8845D, size: 0x8, addend: 0x0, symName: '__ZN72_$LT$$RF$str$u20$as$u20$alloc..ffi..c_str..CString..new..SpecNewImpl$GT$13spec_new_impl17h5342f55e02432f13E', symObjAddr: 0x27280, symBinAddr: 0x2ACE4, symSize: 0x174 }
  - { offset: 0x8872D, size: 0x8, addend: 0x0, symName: __ZN5alloc6string6String15from_utf8_lossy17h8a2865791ac0dcb2E, symObjAddr: 0x273F4, symBinAddr: 0x2AE58, symSize: 0x230 }
  - { offset: 0x88D26, size: 0x8, addend: 0x0, symName: '__ZN58_$LT$alloc..string..String$u20$as$u20$core..fmt..Write$GT$9write_str17he8b8e479d4981e28E.568', symObjAddr: 0x277FC, symBinAddr: 0x2B260, symSize: 0x78 }
  - { offset: 0x88E8A, size: 0x8, addend: 0x0, symName: '__ZN58_$LT$alloc..string..String$u20$as$u20$core..fmt..Write$GT$10write_char17hc05bb0c5ec75d476E.569', symObjAddr: 0x27874, symBinAddr: 0x2B2D8, symSize: 0x130 }
  - { offset: 0x89063, size: 0x8, addend: 0x0, symName: __ZN5alloc3fmt6format12format_inner17h92b02cadc1f29f68E, symObjAddr: 0x27624, symBinAddr: 0x2B088, symSize: 0x190 }
  - { offset: 0x893F0, size: 0x8, addend: 0x0, symName: '__ZN5alloc3str21_$LT$impl$u20$str$GT$12to_lowercase17h53f192b8dfd4fe7eE', symObjAddr: 0x279CC, symBinAddr: 0x2B430, symSize: 0x8B0 }
  - { offset: 0x8A361, size: 0x8, addend: 0x0, symName: __ZN4core3fmt5Write9write_fmt17hbc6f48ff4ff5452fE, symObjAddr: 0x279A4, symBinAddr: 0x2B408, symSize: 0x28 }
  - { offset: 0x8A3C5, size: 0x8, addend: 0x0, symName: '__ZN53_$LT$core..fmt..Error$u20$as$u20$core..fmt..Debug$GT$3fmt17h8ab6c3a6dbcfa435E.567', symObjAddr: 0x277B4, symBinAddr: 0x2B218, symSize: 0x24 }
  - { offset: 0x8A54D, size: 0x8, addend: 0x0, symName: '__ZN4core3ptr42drop_in_place$LT$alloc..string..String$GT$17h5fea6cc46c0a4573E', symObjAddr: 0x277D8, symBinAddr: 0x2B23C, symSize: 0x24 }
  - { offset: 0x8AAC2, size: 0x8, addend: 0x0, symName: _OUTLINED_FUNCTION_33, symObjAddr: 0x9AAAC, symBinAddr: 0x9A288, symSize: 0xC }
  - { offset: 0xEFFCD, size: 0x8, addend: 0x0, symName: __RNvCs691rhTbG0Ee_7___rustc18___rust_start_panic, symObjAddr: 0x67108, symBinAddr: 0xB2030, symSize: 0xC }
  - { offset: 0xEFFE1, size: 0x8, addend: 0x0, symName: __RNvCs691rhTbG0Ee_7___rustc18___rust_start_panic, symObjAddr: 0x67108, symBinAddr: 0xB2030, symSize: 0xC }
  - { offset: 0xF0002, size: 0x8, addend: 0x0, symName: __ZN11panic_abort18__rust_start_panic5abort17hcf205c020988f8f8E, symObjAddr: 0x67114, symBinAddr: 0xB203C, symSize: 0xC }
  - { offset: 0xEA3D3, size: 0x8, addend: 0x0, symName: __ZN4core5slice6memchr14memchr_aligned17h4d3a26c8aca34a95E, symObjAddr: 0x2B690, symBinAddr: 0x2EB48, symSize: 0xE0 }
  - { offset: 0xEA8C8, size: 0x8, addend: 0x0, symName: __ZN4core5slice5index26slice_start_index_len_fail8do_panic7runtime17h15c72e8330714503E, symObjAddr: 0x28ACC, symBinAddr: 0xB0624, symSize: 0x50 }
  - { offset: 0xEA8FC, size: 0x8, addend: 0x0, symName: __ZN4core5slice5index26slice_start_index_len_fail17h26cdb0018c4a30c3E, symObjAddr: 0x28AC0, symBinAddr: 0xB0618, symSize: 0xC }
  - { offset: 0xEA945, size: 0x8, addend: 0x0, symName: __ZN4core5slice5index24slice_end_index_len_fail8do_panic7runtime17h80bad96a74670472E, symObjAddr: 0x28B28, symBinAddr: 0xB0680, symSize: 0x50 }
  - { offset: 0xEA979, size: 0x8, addend: 0x0, symName: __ZN4core5slice5index24slice_end_index_len_fail17h08819c10a693bdedE, symObjAddr: 0x28B1C, symBinAddr: 0xB0674, symSize: 0xC }
  - { offset: 0xEAA72, size: 0x8, addend: 0x0, symName: __ZN4core5slice5index22slice_index_order_fail8do_panic7runtime17h15393e9855311454E, symObjAddr: 0x29C90, symBinAddr: 0xB0834, symSize: 0x50 }
  - { offset: 0xEAAA6, size: 0x8, addend: 0x0, symName: __ZN4core5slice5index22slice_index_order_fail17hfd24cbcab30dd522E, symObjAddr: 0x29C68, symBinAddr: 0xB080C, symSize: 0xC }
  - { offset: 0xEAC99, size: 0x8, addend: 0x0, symName: __ZN4core5slice4sort6shared9smallsort22panic_on_ord_violation17hd5f0adbd587ca590E, symObjAddr: 0x2B770, symBinAddr: 0xB0B10, symSize: 0x38 }
  - { offset: 0xEAD2E, size: 0x8, addend: 0x0, symName: __ZN4core3fmt9Formatter12pad_integral17he0c721840e7e5330E, symObjAddr: 0x28478, symBinAddr: 0x2BE28, symSize: 0x2A0 }
  - { offset: 0xEB09C, size: 0x8, addend: 0x0, symName: __ZN4core3fmt9Formatter3pad17h575c11a14ffcca7aE, symObjAddr: 0x28B78, symBinAddr: 0x2C470, symSize: 0x310 }
  - { offset: 0xEB44B, size: 0x8, addend: 0x0, symName: __ZN4core3fmt9Formatter26debug_struct_field1_finish17h9e3545909ab1e330E, symObjAddr: 0x2AA64, symBinAddr: 0x2DF28, symSize: 0xD0 }
  - { offset: 0xEB52A, size: 0x8, addend: 0x0, symName: __ZN4core3fmt9Formatter25debug_tuple_field2_finish17hae68702dd0e2ec95E, symObjAddr: 0x2AB34, symBinAddr: 0x2DFF8, symSize: 0x1CC }
  - { offset: 0xEB9CA, size: 0x8, addend: 0x0, symName: '__ZN4core3fmt3num3imp54_$LT$impl$u20$core..fmt..Display$u20$for$u20$usize$GT$3fmt17hccd6704e9261eb46E', symObjAddr: 0x28310, symBinAddr: 0x2BCE0, symSize: 0x14 }
  - { offset: 0xEB9F2, size: 0x8, addend: 0x0, symName: '__ZN4core3fmt3num3imp23_$LT$impl$u20$usize$GT$4_fmt17h825eb5aae197b935E', symObjAddr: 0x28344, symBinAddr: 0x2BCF4, symSize: 0x134 }
  - { offset: 0xEBADE, size: 0x8, addend: 0x0, symName: '__ZN4core3fmt3num3imp21_$LT$impl$u20$u64$GT$4_fmt17had967dc173ab1b8cE', symObjAddr: 0x291C8, symBinAddr: 0x2C9B8, symSize: 0x130 }
  - { offset: 0xEBBC9, size: 0x8, addend: 0x0, symName: '__ZN4core3fmt3num3imp52_$LT$impl$u20$core..fmt..Display$u20$for$u20$u32$GT$3fmt17h37de028911cc7087E', symObjAddr: 0x2932C, symBinAddr: 0x2CAE8, symSize: 0x1C }
  - { offset: 0xEBBEA, size: 0x8, addend: 0x0, symName: '__ZN4core3fmt3num3imp21_$LT$impl$u20$u32$GT$4_fmt17hc61d67a16304cd84E', symObjAddr: 0x29348, symBinAddr: 0x2CB04, symSize: 0x124 }
  - { offset: 0xEBCE9, size: 0x8, addend: 0x0, symName: '__ZN4core3fmt3num3imp51_$LT$impl$u20$core..fmt..Display$u20$for$u20$u8$GT$3fmt17h41751fb7bc1586a9E', symObjAddr: 0x2A594, symBinAddr: 0x2DC50, symSize: 0xB0 }
  - { offset: 0xEBDC5, size: 0x8, addend: 0x0, symName: '__ZN4core3fmt3num3imp52_$LT$impl$u20$core..fmt..Display$u20$for$u20$u64$GT$3fmt17ha605904a8d109c3fE', symObjAddr: 0x2C0C4, symBinAddr: 0x2F544, symSize: 0x1C }
  - { offset: 0xEBDE6, size: 0x8, addend: 0x0, symName: '__ZN4core3fmt3num3imp52_$LT$impl$u20$core..fmt..Display$u20$for$u20$i32$GT$3fmt17hba0fadf67ba3c59dE', symObjAddr: 0x2C218, symBinAddr: 0x2F664, symSize: 0x28 }
  - { offset: 0xEBE3B, size: 0x8, addend: 0x0, symName: '__ZN4core3fmt3num3imp52_$LT$impl$u20$core..fmt..Display$u20$for$u20$i64$GT$3fmt17hb5f09893913ecd23E', symObjAddr: 0x2C240, symBinAddr: 0x2F68C, symSize: 0x28 }
  - { offset: 0xEBF64, size: 0x8, addend: 0x0, symName: '__ZN4core3fmt3num52_$LT$impl$u20$core..fmt..UpperHex$u20$for$u20$u8$GT$3fmt17hb1b90ce6eddf4ea0E', symObjAddr: 0x2C040, symBinAddr: 0x2F4C0, symSize: 0x84 }
  - { offset: 0xEC032, size: 0x8, addend: 0x0, symName: '__ZN4core3fmt3num52_$LT$impl$u20$core..fmt..LowerHex$u20$for$u20$u8$GT$3fmt17h23b2d2e0b3c8ba2bE', symObjAddr: 0x2C0E0, symBinAddr: 0x2F560, symSize: 0x84 }
  - { offset: 0xEC114, size: 0x8, addend: 0x0, symName: '__ZN4core3fmt3num53_$LT$impl$u20$core..fmt..LowerHex$u20$for$u20$u64$GT$3fmt17h70cc8ec3468a4dfbE', symObjAddr: 0x2C198, symBinAddr: 0x2F5E4, symSize: 0x80 }
  - { offset: 0xEC29C, size: 0x8, addend: 0x0, symName: __ZN4core3fmt9Formatter12pad_integral12write_prefix17h033f42324a1fcacbE, symObjAddr: 0x28A44, symBinAddr: 0x2C3F4, symSize: 0x7C }
  - { offset: 0xEC2EB, size: 0x8, addend: 0x0, symName: '__ZN44_$LT$$RF$T$u20$as$u20$core..fmt..Display$GT$3fmt17hb59a3c4fb517191dE', symObjAddr: 0x28F90, symBinAddr: 0x2C780, symSize: 0x1C }
  - { offset: 0xEC324, size: 0x8, addend: 0x0, symName: '__ZN59_$LT$core..fmt..Arguments$u20$as$u20$core..fmt..Display$GT$3fmt17h0dde584251a3402bE', symObjAddr: 0x28FAC, symBinAddr: 0x2C79C, symSize: 0x18 }
  - { offset: 0xEC346, size: 0x8, addend: 0x0, symName: '__ZN42_$LT$$RF$T$u20$as$u20$core..fmt..Debug$GT$3fmt17h37f7c46e3023e8d3E', symObjAddr: 0x28FC4, symBinAddr: 0x2C7B4, symSize: 0x1C }
  - { offset: 0xEC361, size: 0x8, addend: 0x0, symName: '__ZN42_$LT$$RF$T$u20$as$u20$core..fmt..Debug$GT$3fmt17h58ef36369dcff0c8E', symObjAddr: 0x2A83C, symBinAddr: 0x2DD00, symSize: 0xE8 }
  - { offset: 0xEC500, size: 0x8, addend: 0x0, symName: __ZN4core3fmt5write17h265c39741fcf14a5E, symObjAddr: 0x28FE0, symBinAddr: 0x2C7D0, symSize: 0x1E8 }
  - { offset: 0xEC737, size: 0x8, addend: 0x0, symName: '__ZN43_$LT$char$u20$as$u20$core..fmt..Display$GT$3fmt17h831548fa23aae131E', symObjAddr: 0x29CE0, symBinAddr: 0x2D424, symSize: 0xEC }
  - { offset: 0xEC7EE, size: 0x8, addend: 0x0, symName: __ZN4core3fmt8builders11DebugStruct5field17h0535b4c5585717e7E, symObjAddr: 0x2A0E0, symBinAddr: 0x2D79C, symSize: 0x1AC }
  - { offset: 0xECACE, size: 0x8, addend: 0x0, symName: '__ZN68_$LT$core..fmt..builders..PadAdapter$u20$as$u20$core..fmt..Write$GT$9write_str17hd6cc070a06e282f4E', symObjAddr: 0x2A28C, symBinAddr: 0x2D948, symSize: 0x260 }
  - { offset: 0xECD15, size: 0x8, addend: 0x0, symName: '__ZN68_$LT$core..fmt..builders..PadAdapter$u20$as$u20$core..fmt..Write$GT$10write_char17h6752a4b830cafb48E', symObjAddr: 0x2A4EC, symBinAddr: 0x2DBA8, symSize: 0x80 }
  - { offset: 0xECDBC, size: 0x8, addend: 0x0, symName: __ZN4core3fmt8builders9DebugList5entry17h2aed865b4f83c538E, symObjAddr: 0x2A924, symBinAddr: 0x2DDE8, symSize: 0x140 }
  - { offset: 0xED01E, size: 0x8, addend: 0x0, symName: __ZN4core3fmt5Write9write_fmt17h6a7730401e0fa878E, symObjAddr: 0x2A56C, symBinAddr: 0x2DC28, symSize: 0x28 }
  - { offset: 0xED082, size: 0x8, addend: 0x0, symName: '__ZN43_$LT$bool$u20$as$u20$core..fmt..Display$GT$3fmt17h70e834258d17beeaE', symObjAddr: 0x2AD00, symBinAddr: 0x2E1C4, symSize: 0x44 }
  - { offset: 0xED0F4, size: 0x8, addend: 0x0, symName: '__ZN40_$LT$str$u20$as$u20$core..fmt..Debug$GT$3fmt17h66aefde43f9d80a7E', symObjAddr: 0x2AD44, symBinAddr: 0x2E208, symSize: 0x358 }
  - { offset: 0xED587, size: 0x8, addend: 0x0, symName: '__ZN41_$LT$char$u20$as$u20$core..fmt..Debug$GT$3fmt17h6a9618120349f649E', symObjAddr: 0x2B3E4, symBinAddr: 0x2E89C, symSize: 0xAC }
  - { offset: 0xED889, size: 0x8, addend: 0x0, symName: __ZN4core7unicode12unicode_data15grapheme_extend11lookup_slow17h9990ce5e65f3e87aE, symObjAddr: 0x29B54, symBinAddr: 0x2D310, symSize: 0x114 }
  - { offset: 0xEDAED, size: 0x8, addend: 0x0, symName: __ZN4core7unicode12unicode_data14case_ignorable6lookup17h17910d4d812e6b5eE, symObjAddr: 0x2C268, symBinAddr: 0x2F6B4, symSize: 0x118 }
  - { offset: 0xEDC9A, size: 0x8, addend: 0x0, symName: __ZN4core7unicode12unicode_data5cased6lookup17h84c49db4c3433258E, symObjAddr: 0x2C380, symBinAddr: 0x2F7CC, symSize: 0x100 }
  - { offset: 0xEDE48, size: 0x8, addend: 0x0, symName: __ZN4core7unicode9printable12is_printable17h923eee1baf455be7E, symObjAddr: 0x298A0, symBinAddr: 0x2D05C, symSize: 0x2B4 }
  - { offset: 0xEE2D1, size: 0x8, addend: 0x0, symName: __ZN4core6result13unwrap_failed17hb2ec801bc5795a40E, symObjAddr: 0x2A644, symBinAddr: 0xB090C, symSize: 0x5C }
  - { offset: 0xEE353, size: 0x8, addend: 0x0, symName: '__ZN4core4char7methods22_$LT$impl$u20$char$GT$16escape_debug_ext17ha02e91854125ac8bE', symObjAddr: 0x29638, symBinAddr: 0x2CDF4, symSize: 0x268 }
  - { offset: 0xEE5C9, size: 0x8, addend: 0x0, symName: __ZN4core9panicking18panic_bounds_check17h67e4c8569351d5d7E, symObjAddr: 0x282C8, symBinAddr: 0xB05B0, symSize: 0x48 }
  - { offset: 0xEE5FC, size: 0x8, addend: 0x0, symName: __ZN4core9panicking9panic_fmt17ha2c69e580b34bc99E, symObjAddr: 0x28324, symBinAddr: 0xB05F8, symSize: 0x20 }
  - { offset: 0xEE62C, size: 0x8, addend: 0x0, symName: __ZN4core9panicking5panic17h73ac7719bc471a24E, symObjAddr: 0x28E88, symBinAddr: 0xB06D0, symSize: 0x34 }
  - { offset: 0xEE65C, size: 0x8, addend: 0x0, symName: __ZN4core9panicking19assert_failed_inner17h36a925db511ce066E, symObjAddr: 0x28EBC, symBinAddr: 0xB0704, symSize: 0xD4 }
  - { offset: 0xEE6AD, size: 0x8, addend: 0x0, symName: __ZN4core9panicking11panic_const23panic_const_div_by_zero17hf55a13c89599bb8cE, symObjAddr: 0x292F8, symBinAddr: 0xB07D8, symSize: 0x34 }
  - { offset: 0xEE6DD, size: 0x8, addend: 0x0, symName: __ZN4core9panicking11panic_const23panic_const_rem_by_zero17h0c175f04d3e39e80E, symObjAddr: 0x2C164, symBinAddr: 0xB0B48, symSize: 0x34 }
  - { offset: 0xEE731, size: 0x8, addend: 0x0, symName: __ZN4core9panicking18panic_nounwind_fmt17h4095907116aac7c7E, symObjAddr: 0x2A6E8, symBinAddr: 0xB09B0, symSize: 0x3C }
  - { offset: 0xEE778, size: 0x8, addend: 0x0, symName: __ZN4core9panicking19panic_cannot_unwind17hc5c879a2b124e18bE, symObjAddr: 0x2A724, symBinAddr: 0xB09EC, symSize: 0xC }
  - { offset: 0xEE793, size: 0x8, addend: 0x0, symName: __ZN4core9panicking14panic_nounwind17heee9f1136808c909E, symObjAddr: 0x2A730, symBinAddr: 0xB09F8, symSize: 0x48 }
  - { offset: 0xEE7C4, size: 0x8, addend: 0x0, symName: __ZN4core9panicking26panic_nounwind_nobacktrace17h51995693bfc3133cE, symObjAddr: 0x2A778, symBinAddr: 0xB0A40, symSize: 0x48 }
  - { offset: 0xEE803, size: 0x8, addend: 0x0, symName: __ZN4core9panicking14panic_explicit17h38b8fb0c1850513bE, symObjAddr: 0x2A7C0, symBinAddr: 0xB0A88, symSize: 0x4C }
  - { offset: 0xEE84C, size: 0x8, addend: 0x0, symName: __ZN4core9panicking16panic_in_cleanup17h4dc52fdc8746d308E, symObjAddr: 0x2A80C, symBinAddr: 0xB0AD4, symSize: 0xC }
  - { offset: 0xEE867, size: 0x8, addend: 0x0, symName: __ZN4core9panicking13assert_failed17hef377f1097a6b10aE, symObjAddr: 0x2A818, symBinAddr: 0xB0AE0, symSize: 0x24 }
  - { offset: 0xEEBBE, size: 0x8, addend: 0x0, symName: __ZN4core3str5count14do_count_chars17h275a5f35c4be0598E, symObjAddr: 0x28718, symBinAddr: 0x2C0C8, symSize: 0x32C }
  - { offset: 0xEEFEB, size: 0x8, addend: 0x0, symName: '__ZN87_$LT$core..str..lossy..Utf8Chunks$u20$as$u20$core..iter..traits..iterator..Iterator$GT$4next17h6e1899cb971edd4bE', symObjAddr: 0x2946C, symBinAddr: 0x2CC28, symSize: 0x1CC }
  - { offset: 0xEF20C, size: 0x8, addend: 0x0, symName: __ZN4core3str8converts9from_utf817h7111093859b6b513E, symObjAddr: 0x29E9C, symBinAddr: 0x2D558, symSize: 0x244 }
  - { offset: 0xEF31B, size: 0x8, addend: 0x0, symName: __ZN4core3str7pattern11StrSearcher3new17h9e6a21edb410ad1dE, symObjAddr: 0x2B7A8, symBinAddr: 0x2EC28, symSize: 0x898 }
  - { offset: 0xEF6BD, size: 0x8, addend: 0x0, symName: __ZN4core3str16slice_error_fail17h8797f2779603ccf8E, symObjAddr: 0x2B09C, symBinAddr: 0xB0B04, symSize: 0xC }
  - { offset: 0xEF6D7, size: 0x8, addend: 0x0, symName: __ZN4core3str19slice_error_fail_rt17heb32bb11f36a694fE, symObjAddr: 0x2B0A8, symBinAddr: 0x2E560, symSize: 0x33C }
  - { offset: 0xEFA8F, size: 0x8, addend: 0x0, symName: __ZN4core6option13unwrap_failed17hcab07fcc32ce35d7E, symObjAddr: 0x29C74, symBinAddr: 0xB0818, symSize: 0x1C }
  - { offset: 0xEFAAA, size: 0x8, addend: 0x0, symName: __ZN4core6option13expect_failed17h2f7972f24a6d9f34E, symObjAddr: 0x2A6A0, symBinAddr: 0xB0968, symSize: 0x48 }
  - { offset: 0xEFB01, size: 0x8, addend: 0x0, symName: '__ZN60_$LT$core..cell..BorrowError$u20$as$u20$core..fmt..Debug$GT$3fmt17h57c4f839ddbba2f2E', symObjAddr: 0x29DCC, symBinAddr: 0x2D510, symSize: 0x24 }
  - { offset: 0xEFB67, size: 0x8, addend: 0x0, symName: '__ZN63_$LT$core..cell..BorrowMutError$u20$as$u20$core..fmt..Debug$GT$3fmt17h83d0c6b4d08da358E', symObjAddr: 0x29DF0, symBinAddr: 0x2D534, symSize: 0x24 }
  - { offset: 0xEFBC7, size: 0x8, addend: 0x0, symName: __ZN4core4cell22panic_already_borrowed17ha93b08466e9de953E, symObjAddr: 0x29E14, symBinAddr: 0xB0884, symSize: 0x44 }
  - { offset: 0xEFBFA, size: 0x8, addend: 0x0, symName: __ZN4core4cell30panic_already_mutably_borrowed17h23b6cddf7e6254fdE, symObjAddr: 0x29E58, symBinAddr: 0xB08C8, symSize: 0x44 }
  - { offset: 0xEFCC5, size: 0x8, addend: 0x0, symName: '__ZN71_$LT$core..ops..range..Range$LT$Idx$GT$$u20$as$u20$core..fmt..Debug$GT$3fmt17hc315cdc158287904E', symObjAddr: 0x2B490, symBinAddr: 0x2E948, symSize: 0x200 }
  - { offset: 0xEFF97, size: 0x8, addend: 0x0, symName: _OUTLINED_FUNCTION_16, symObjAddr: 0x9A9D8, symBinAddr: 0x9A1B4, symSize: 0x10 }
  - { offset: 0x8AB54, size: 0x8, addend: 0x0, symName: __ZN3std3sys9backtrace26__rust_end_short_backtrace17h4298242386509589E, symObjAddr: 0x6F9F4, symBinAddr: 0x70834, symSize: 0xC }
  - { offset: 0x8AB82, size: 0x8, addend: 0x0, symName: __ZN3std3sys9backtrace13BacktraceLock5print17h18960efea96ca220E, symObjAddr: 0x7240C, symBinAddr: 0x72DA4, symSize: 0x50 }
  - { offset: 0x8ABD4, size: 0x8, addend: 0x0, symName: '__ZN98_$LT$std..sys..backtrace..BacktraceLock..print..DisplayBacktrace$u20$as$u20$core..fmt..Display$GT$3fmt17hdc465a7f7c1d2412E', symObjAddr: 0x7245C, symBinAddr: 0x72DF4, symSize: 0x304 }
  - { offset: 0x8B709, size: 0x8, addend: 0x0, symName: '__ZN3std3sys9backtrace10_print_fmt28_$u7b$$u7b$closure$u7d$$u7d$17hbec1646fa3fcc28fE', symObjAddr: 0x727EC, symBinAddr: 0x7314C, symSize: 0x288C }
  - { offset: 0x91D2E, size: 0x8, addend: 0x0, symName: '__ZN3std3sys9backtrace10_print_fmt28_$u7b$$u7b$closure$u7d$$u7d$28_$u7b$$u7b$closure$u7d$$u7d$17h964492f27acca1d9E', symObjAddr: 0x90D70, symBinAddr: 0x91298, symSize: 0x25C }
  - { offset: 0x91F74, size: 0x8, addend: 0x0, symName: '__ZN3std3sys9backtrace10_print_fmt28_$u7b$$u7b$closure$u7d$$u7d$17h43b42a6ebd0a26bdE', symObjAddr: 0x914F0, symBinAddr: 0x91A18, symSize: 0x30 }
  - { offset: 0x91F9F, size: 0x8, addend: 0x0, symName: __ZN3std3sys9backtrace15output_filename17h0c8c6af62503f6d6E, symObjAddr: 0x91520, symBinAddr: 0x91A48, symSize: 0x3C4 }
  - { offset: 0x922D7, size: 0x8, addend: 0x0, symName: __ZN3std3sys9backtrace26__rust_end_short_backtrace17h2c5a94eab37dd125E, symObjAddr: 0x946A0, symBinAddr: 0x943C4, symSize: 0xC }
  - { offset: 0x92319, size: 0x8, addend: 0x0, symName: _rust_eh_personality, symObjAddr: 0x6FA30, symBinAddr: 0x70870, symSize: 0x344 }
  - { offset: 0x9261A, size: 0x8, addend: 0x0, symName: '__ZN3std3sys11personality3gcc14find_eh_action28_$u7b$$u7b$closure$u7d$$u7d$17h9afd50380ee312cbE', symObjAddr: 0x9398C, symBinAddr: 0x93BF0, symSize: 0x18 }
  - { offset: 0x9263C, size: 0x8, addend: 0x0, symName: '__ZN3std3sys11personality3gcc14find_eh_action28_$u7b$$u7b$closure$u7d$$u7d$17h6dd89d4db6eeb705E', symObjAddr: 0x939BC, symBinAddr: 0x93C20, symSize: 0x18 }
  - { offset: 0x92692, size: 0x8, addend: 0x0, symName: __ZN3std3sys11personality5dwarf2eh19read_encoded_offset17h7fd3c50543fbb139E, symObjAddr: 0x93824, symBinAddr: 0x93A88, symSize: 0x150 }
  - { offset: 0x92882, size: 0x8, addend: 0x0, symName: __ZN3std3sys4sync6rwlock5queue6RwLock12unlock_queue17h89a9a4e2209757f8E, symObjAddr: 0x70BD4, symBinAddr: 0x718CC, symSize: 0x22C }
  - { offset: 0x92F7B, size: 0x8, addend: 0x0, symName: __ZN3std3sys4sync6rwlock5queue6RwLock21read_unlock_contended17h2b2e561414d0def9E, symObjAddr: 0x92978, symBinAddr: 0xB2DD8, symSize: 0x54 }
  - { offset: 0x930FB, size: 0x8, addend: 0x0, symName: __ZN3std3sys4sync6rwlock5queue6RwLock16unlock_contended17h38f6f11bba6efaffE, symObjAddr: 0x92A4C, symBinAddr: 0xB2E2C, symSize: 0x94 }
  - { offset: 0x931AA, size: 0x8, addend: 0x0, symName: __ZN3std3sys4sync6rwlock5queue6RwLock14lock_contended17he0c4fb13435a77c8E, symObjAddr: 0x954C4, symBinAddr: 0xB355C, symSize: 0x248 }
  - { offset: 0x938C7, size: 0x8, addend: 0x0, symName: '__ZN83_$LT$std..sys..sync..rwlock..queue..PanicGuard$u20$as$u20$core..ops..drop..Drop$GT$4drop17h64ec76233b4c3779E', symObjAddr: 0x70E00, symBinAddr: 0xB296C, symSize: 0x3C }
  - { offset: 0x9398D, size: 0x8, addend: 0x0, symName: '__ZN3std3sys4sync8once_box16OnceBox$LT$T$GT$10initialize17h92d75b5cb312f8b1E', symObjAddr: 0x944C4, symBinAddr: 0xB3498, symSize: 0xC4 }
  - { offset: 0x93C35, size: 0x8, addend: 0x0, symName: __ZN3std3sys3pal4unix4sync5mutex5Mutex4init17h12c0f88ba77e8457E, symObjAddr: 0x7145C, symBinAddr: 0x71E18, symSize: 0x168 }
  - { offset: 0x93D00, size: 0x8, addend: 0x0, symName: __ZN3std3sys3pal4unix4sync5mutex5Mutex4lock4fail17hd9249e6b2588775aE, symObjAddr: 0x70E48, symBinAddr: 0xB29B4, symSize: 0xCC }
  - { offset: 0x940E7, size: 0x8, addend: 0x0, symName: __ZN3std3sys3pal4unix4time8Timespec12sub_timespec17h0dfa443e2346e0c9E, symObjAddr: 0x94064, symBinAddr: 0x941D0, symSize: 0xDC }
  - { offset: 0x941EE, size: 0x8, addend: 0x0, symName: __ZN3std3sys3pal4unix6thread6Thread3new12thread_start17h0e8c9af386cb84b6E, symObjAddr: 0x95458, symBinAddr: 0x9517C, symSize: 0x6C }
  - { offset: 0x944A0, size: 0x8, addend: 0x0, symName: __ZN3std3sys3pal6common14small_c_string24run_with_cstr_allocating17h132ef0ef5f2165a8E, symObjAddr: 0x87600, symBinAddr: 0xB2B08, symSize: 0xA4 }
  - { offset: 0x94581, size: 0x8, addend: 0x0, symName: __ZN3std3sys3pal6common14small_c_string24run_with_cstr_allocating17h834d2eafde75ad5aE, symObjAddr: 0x90B44, symBinAddr: 0xB2BAC, symSize: 0x22C }
  - { offset: 0x94795, size: 0x8, addend: 0x0, symName: __ZN3std3sys3pal6common14small_c_string24run_with_cstr_allocating17h1e852e7e1a5dce9dE, symObjAddr: 0x9417C, symBinAddr: 0xB3150, symSize: 0x114 }
  - { offset: 0x94995, size: 0x8, addend: 0x0, symName: __ZN3std3sys3pal6common14small_c_string24run_with_cstr_allocating17h48ce0a13daff9140E, symObjAddr: 0x94290, symBinAddr: 0xB3264, symSize: 0xB8 }
  - { offset: 0x94BE1, size: 0x8, addend: 0x0, symName: __ZN3std3sys12thread_local6native5eager7destroy17h3f301903f7687387E, symObjAddr: 0x93C6C, symBinAddr: 0x93E5C, symSize: 0x8C }
  - { offset: 0x94DCB, size: 0x8, addend: 0x0, symName: __ZN3std3sys12thread_local5guard5apple6enable9run_dtors17h3ab942b9afd40d21E, symObjAddr: 0x92218, symBinAddr: 0x92740, symSize: 0x190 }
  - { offset: 0x952E8, size: 0x8, addend: 0x0, symName: __ZN3std3sys12thread_local11destructors4list8register17h206178e5801ba7deE, symObjAddr: 0x920B4, symBinAddr: 0x925DC, symSize: 0x164 }
  - { offset: 0x95610, size: 0x8, addend: 0x0, symName: '__ZN103_$LT$std..sys..thread_local..abort_on_dtor_unwind..DtorUnwindGuard$u20$as$u20$core..ops..drop..Drop$GT$4drop17h795f8c68d1be275bE', symObjAddr: 0x93ED0, symBinAddr: 0xB3090, symSize: 0x3C }
  - { offset: 0x95861, size: 0x8, addend: 0x0, symName: '__ZN65_$LT$std..sys..fs..unix..Dir$u20$as$u20$core..ops..drop..Drop$GT$4drop17h0344b95dc975780dE', symObjAddr: 0x87538, symBinAddr: 0x87DE4, symSize: 0xC8 }
  - { offset: 0x9595E, size: 0x8, addend: 0x0, symName: __ZN3std3sys2fs8read_dir17hba16039c4f227f89E, symObjAddr: 0x78E58, symBinAddr: 0x79704, symSize: 0x270 }
  - { offset: 0x95D90, size: 0x8, addend: 0x0, symName: __ZN3std3sys2fs11remove_file17hd10b306d29147049E, symObjAddr: 0x94C64, symBinAddr: 0x94988, symSize: 0x198 }
  - { offset: 0x95F9B, size: 0x8, addend: 0x0, symName: '__ZN3std3sys2fs6rename28_$u7b$$u7b$closure$u7d$$u7d$28_$u7b$$u7b$closure$u7d$$u7d$17h32eda37e9c8875a1E', symObjAddr: 0x95108, symBinAddr: 0x94E2C, symSize: 0x38 }
  - { offset: 0x96038, size: 0x8, addend: 0x0, symName: '__ZN3std3sys2fs6rename28_$u7b$$u7b$closure$u7d$$u7d$17h6b99859d4c62d85dE', symObjAddr: 0x95140, symBinAddr: 0x94E64, symSize: 0x194 }
  - { offset: 0x96218, size: 0x8, addend: 0x0, symName: __ZN3std3sys2fs6rename17h57a3dd33e783df3eE, symObjAddr: 0x94E34, symBinAddr: 0x94B58, symSize: 0x2D4 }
  - { offset: 0x965EE, size: 0x8, addend: 0x0, symName: __ZN3std3sys6random19hashmap_random_keys17hc0f82117f5a67a4eE, symObjAddr: 0x952D4, symBinAddr: 0x94FF8, symSize: 0x6C }
  - { offset: 0x96693, size: 0x8, addend: 0x0, symName: __ZN3std5alloc24default_alloc_error_hook17h237d5b6d679f7c3cE, symObjAddr: 0x95340, symBinAddr: 0x95064, symSize: 0xD4 }
  - { offset: 0x96995, size: 0x8, addend: 0x0, symName: __ZN3std5alloc8rust_oom17h615f5f8590b316f0E, symObjAddr: 0x9570C, symBinAddr: 0xB37A4, symSize: 0x10 }
  - { offset: 0x969B6, size: 0x8, addend: 0x0, symName: __RNvCs691rhTbG0Ee_7___rustc8___rg_oom, symObjAddr: 0x9571C, symBinAddr: 0xB37B4, symSize: 0x18 }
  - { offset: 0x969D9, size: 0x8, addend: 0x0, symName: '__ZN3std9panicking41begin_panic$u7b$$u7b$reify.shim$u7d$$u7d$17h632f3ed2a7708a09E', symObjAddr: 0x6F9C4, symBinAddr: 0xB2800, symSize: 0xC }
  - { offset: 0x969F4, size: 0x8, addend: 0x0, symName: __ZN3std9panicking11begin_panic17h766042ebb126afc8E, symObjAddr: 0x6F9D0, symBinAddr: 0xB280C, symSize: 0x24 }
  - { offset: 0x96A16, size: 0x8, addend: 0x0, symName: '__ZN3std9panicking11begin_panic28_$u7b$$u7b$closure$u7d$$u7d$17h4ac3d93ac6c18c6dE', symObjAddr: 0x6FA00, symBinAddr: 0x70840, symSize: 0x30 }
  - { offset: 0x96A37, size: 0x8, addend: 0x0, symName: '__ZN84_$LT$std..panicking..begin_panic..Payload$LT$A$GT$$u20$as$u20$core..fmt..Display$GT$3fmt17heeaa8d9105d4c82aE', symObjAddr: 0x93738, symBinAddr: 0x939A8, symSize: 0x28 }
  - { offset: 0x96A86, size: 0x8, addend: 0x0, symName: '__ZN91_$LT$std..panicking..begin_panic..Payload$LT$A$GT$$u20$as$u20$core..panic..PanicPayload$GT$8take_box17h0d94a54a1008f98aE', symObjAddr: 0x93760, symBinAddr: 0x939D0, symSize: 0x54 }
  - { offset: 0x96B5C, size: 0x8, addend: 0x0, symName: '__ZN91_$LT$std..panicking..begin_panic..Payload$LT$A$GT$$u20$as$u20$core..panic..PanicPayload$GT$3get17hb67f1f5573f087e8E', symObjAddr: 0x937B4, symBinAddr: 0x93A24, symSize: 0x20 }
  - { offset: 0x96BF7, size: 0x8, addend: 0x0, symName: __ZN3std9panicking11panic_count17is_zero_slow_path17hc4d1a3e3ef7c5bafE, symObjAddr: 0x70F14, symBinAddr: 0xB2A80, symSize: 0x2C }
  - { offset: 0x96CCF, size: 0x8, addend: 0x0, symName: __ZN3std9panicking20rust_panic_with_hook17h75fd298c5828de31E, symObjAddr: 0x6FD74, symBinAddr: 0x70BB4, symSize: 0xA90 }
  - { offset: 0x986A4, size: 0x8, addend: 0x0, symName: __RNvCs691rhTbG0Ee_7___rustc10rust_panic, symObjAddr: 0x70E3C, symBinAddr: 0xB29A8, symSize: 0xC }
  - { offset: 0x986F6, size: 0x8, addend: 0x0, symName: '__ZN3std9panicking19begin_panic_handler28_$u7b$$u7b$closure$u7d$$u7d$17h806998b99bc034a5E', symObjAddr: 0x946AC, symBinAddr: 0x943D0, symSize: 0xC0 }
  - { offset: 0x9888F, size: 0x8, addend: 0x0, symName: '__ZN92_$LT$std..panicking..begin_panic_handler..StaticStrPayload$u20$as$u20$core..fmt..Display$GT$3fmt17hb128679eea8d14f8E', symObjAddr: 0x9476C, symBinAddr: 0x94490, symSize: 0x20 }
  - { offset: 0x988C8, size: 0x8, addend: 0x0, symName: '__ZN99_$LT$std..panicking..begin_panic_handler..StaticStrPayload$u20$as$u20$core..panic..PanicPayload$GT$8take_box17hd5b09bcf59b37412E', symObjAddr: 0x9478C, symBinAddr: 0x944B0, symSize: 0x48 }
  - { offset: 0x98971, size: 0x8, addend: 0x0, symName: '__ZN99_$LT$std..panicking..begin_panic_handler..StaticStrPayload$u20$as$u20$core..panic..PanicPayload$GT$3get17hedc18ac1643dfaf1E', symObjAddr: 0x947D4, symBinAddr: 0x944F8, symSize: 0x18 }
  - { offset: 0x9898C, size: 0x8, addend: 0x0, symName: '__ZN99_$LT$std..panicking..begin_panic_handler..StaticStrPayload$u20$as$u20$core..panic..PanicPayload$GT$6as_str17h98cc4fba7430d7e9E', symObjAddr: 0x947EC, symBinAddr: 0x94510, symSize: 0x18 }
  - { offset: 0x989AE, size: 0x8, addend: 0x0, symName: '__ZN95_$LT$std..panicking..begin_panic_handler..FormatStringPayload$u20$as$u20$core..fmt..Display$GT$3fmt17h28daa8b0935b65f0E', symObjAddr: 0x94834, symBinAddr: 0x94558, symSize: 0x68 }
  - { offset: 0x98B29, size: 0x8, addend: 0x0, symName: '__ZN102_$LT$std..panicking..begin_panic_handler..FormatStringPayload$u20$as$u20$core..panic..PanicPayload$GT$8take_box17h2daf26e0eaa0f63fE', symObjAddr: 0x9489C, symBinAddr: 0x945C0, symSize: 0x104 }
  - { offset: 0x98DDB, size: 0x8, addend: 0x0, symName: '__ZN102_$LT$std..panicking..begin_panic_handler..FormatStringPayload$u20$as$u20$core..panic..PanicPayload$GT$3get17h1d2ea44da5c12720E', symObjAddr: 0x949A0, symBinAddr: 0x946C4, symSize: 0xB4 }
  - { offset: 0x98F78, size: 0x8, addend: 0x0, symName: __RNvCs691rhTbG0Ee_7___rustc17rust_begin_unwind, symObjAddr: 0x95414, symBinAddr: 0x95138, symSize: 0x20 }
  - { offset: 0x9902E, size: 0x8, addend: 0x0, symName: __ZN3std6thread5local18panic_access_error17hc3eb7c8c3b3f29f5E, symObjAddr: 0x93F0C, symBinAddr: 0xB30CC, symSize: 0x48 }
  - { offset: 0x99066, size: 0x8, addend: 0x0, symName: '__ZN68_$LT$std..thread..local..AccessError$u20$as$u20$core..fmt..Debug$GT$3fmt17h996e6139f95bfc86E', symObjAddr: 0x94040, symBinAddr: 0x941AC, symSize: 0x24 }
  - { offset: 0x99103, size: 0x8, addend: 0x0, symName: __ZN3std6thread6Thread3new17h524ccf9aea23a8b7E, symObjAddr: 0x92CB0, symBinAddr: 0x92F20, symSize: 0x238 }
  - { offset: 0x9969D, size: 0x8, addend: 0x0, symName: __ZN3std6thread7current12init_current17h3c5350aba2e055daE, symObjAddr: 0x92AE0, symBinAddr: 0xB2EC0, symSize: 0x198 }
  - { offset: 0x99A60, size: 0x8, addend: 0x0, symName: __ZN3std6thread8ThreadId3new9exhausted17hd8d253082ab096bdE, symObjAddr: 0x92C78, symBinAddr: 0xB3058, symSize: 0x38 }
  - { offset: 0x99AB4, size: 0x8, addend: 0x0, symName: '__ZN76_$LT$std..thread..spawnhook..SpawnHooks$u20$as$u20$core..ops..drop..Drop$GT$4drop17he519dc597cd2b426E', symObjAddr: 0x93B70, symBinAddr: 0x93D60, symSize: 0xFC }
  - { offset: 0x99E7A, size: 0x8, addend: 0x0, symName: '__ZN65_$LT$std..thread..PanicGuard$u20$as$u20$core..ops..drop..Drop$GT$4drop17h2d5bbd1f9f62eab6E', symObjAddr: 0x94140, symBinAddr: 0xB3114, symSize: 0x3C }
  - { offset: 0x99FD7, size: 0x8, addend: 0x0, symName: __ZN3std4sync4mpmc7context7Context3new17hcd84a6b2c3490013E, symObjAddr: 0x94348, symBinAddr: 0xB331C, symSize: 0x17C }
  - { offset: 0x9A419, size: 0x8, addend: 0x0, symName: __ZN3std3env7_var_os17h9f49c24429c44191E, symObjAddr: 0x9249C, symBinAddr: 0x929C4, symSize: 0x4DC }
  - { offset: 0x9B376, size: 0x8, addend: 0x0, symName: __ZN3std2io5Write9write_fmt17h58bd9bb46c79748cE, symObjAddr: 0x7086C, symBinAddr: 0x716AC, symSize: 0x11C }
  - { offset: 0x9B6BC, size: 0x8, addend: 0x0, symName: __ZN3std2io5Write9write_all17h1732d62ff72d5897E, symObjAddr: 0x91FFC, symBinAddr: 0x92524, symSize: 0xB8 }
  - { offset: 0x9B8E0, size: 0x8, addend: 0x0, symName: '__ZN60_$LT$std..io..error..Error$u20$as$u20$core..fmt..Display$GT$3fmt17h307877b0256d8aeaE', symObjAddr: 0x711D0, symBinAddr: 0x71B8C, symSize: 0x270 }
  - { offset: 0x9BDC7, size: 0x8, addend: 0x0, symName: '__ZN62_$LT$std..io..error..ErrorKind$u20$as$u20$core..fmt..Debug$GT$3fmt17h2342cc7b219c9262E', symObjAddr: 0x72280, symBinAddr: 0x72C18, symSize: 0x3C }
  - { offset: 0x9BDF8, size: 0x8, addend: 0x0, symName: '__ZN58_$LT$std..io..error..Error$u20$as$u20$core..fmt..Debug$GT$3fmt17h0013525273ecf5adE', symObjAddr: 0x7172C, symBinAddr: 0x720C4, symSize: 0xB30 }
  - { offset: 0x9D179, size: 0x8, addend: 0x0, symName: '__ZN81_$LT$std..io..default_write_fmt..Adapter$LT$T$GT$$u20$as$u20$core..fmt..Write$GT$9write_str17hb6443c9f62d28875E', symObjAddr: 0x91D3C, symBinAddr: 0x92264, symSize: 0xF4 }
  - { offset: 0x9D579, size: 0x8, addend: 0x0, symName: '__ZN81_$LT$std..io..default_write_fmt..Adapter$LT$T$GT$$u20$as$u20$core..fmt..Write$GT$9write_str17h7c357bb62da2d4afE', symObjAddr: 0x93410, symBinAddr: 0x93680, symSize: 0x12C }
  - { offset: 0x9D9F3, size: 0x8, addend: 0x0, symName: __ZN3std12backtrace_rs5print17BacktraceFrameFmt21print_raw_with_column17hd0cf8f7aef743142E, symObjAddr: 0x75078, symBinAddr: 0x759D8, symSize: 0x30C }
  - { offset: 0x9DB38, size: 0x8, addend: 0x0, symName: __ZN3std12backtrace_rs5print17BacktraceFrameFmt14print_fileline17h0bce069288e1112aE, symObjAddr: 0x75650, symBinAddr: 0x75FB0, symSize: 0x198 }
  - { offset: 0x9DC57, size: 0x8, addend: 0x0, symName: __ZN3std12backtrace_rs9backtrace9libunwind5trace8trace_fn17h0e780144bc728b5aE, symObjAddr: 0x72760, symBinAddr: 0x730F8, symSize: 0x44 }
  - { offset: 0x9DEA4, size: 0x8, addend: 0x0, symName: __ZN3std12backtrace_rs9symbolize5gimli5macho6Object5parse17ha641d2825394221eE, symObjAddr: 0x76454, symBinAddr: 0x76D00, symSize: 0xA30 }
  - { offset: 0x9FD62, size: 0x8, addend: 0x0, symName: __ZN3std12backtrace_rs9symbolize5gimli5macho6Object7section17h710cea69f0a13325E, symObjAddr: 0x876FC, symBinAddr: 0x87F04, symSize: 0x148 }
  - { offset: 0xA01D6, size: 0x8, addend: 0x0, symName: __ZN3std12backtrace_rs9symbolize5gimli5macho11find_header17ha9eb383c7ef21317E, symObjAddr: 0x75BF4, symBinAddr: 0x764A0, symSize: 0x1E0 }
  - { offset: 0xA0A88, size: 0x8, addend: 0x0, symName: __ZN3std12backtrace_rs9symbolize5gimli4mmap17h1955c49d6bfd751bE, symObjAddr: 0x7589C, symBinAddr: 0x76148, symSize: 0x2B8 }
  - { offset: 0xA121B, size: 0x8, addend: 0x0, symName: __ZN3std12backtrace_rs9symbolize5gimli7Context3new17h89460ae187b1084bE, symObjAddr: 0x76E84, symBinAddr: 0x77730, symSize: 0x1FD4 }
  - { offset: 0xA54A1, size: 0x8, addend: 0x0, symName: __ZN3std12backtrace_rs9symbolize5gimli7Context11find_frames17h20b56075be2c58d2E, symObjAddr: 0x796F0, symBinAddr: 0x79F9C, symSize: 0x3A4 }
  - { offset: 0xA5AAD, size: 0x8, addend: 0x0, symName: '__ZN79_$LT$std..backtrace_rs..symbolize..SymbolName$u20$as$u20$core..fmt..Display$GT$3fmt17h63a13df74122b41dE', symObjAddr: 0x7544C, symBinAddr: 0x75DAC, symSize: 0x204 }
  - { offset: 0xA5BF9, size: 0x8, addend: 0x0, symName: __ZN3std12backtrace_rs9symbolize6Symbol4name17hef93d9221fa000d2E, symObjAddr: 0x90FCC, symBinAddr: 0x914F4, symSize: 0xE4 }
  - { offset: 0xA5E37, size: 0x8, addend: 0x0, symName: __ZN3std4path4Path5_join17h8b1a4024a45dd3f7E, symObjAddr: 0x792E8, symBinAddr: 0x79B94, symSize: 0x190 }
  - { offset: 0xA64C2, size: 0x8, addend: 0x0, symName: __ZN3std4path10Components7as_path17h1ed7d000db16df95E, symObjAddr: 0x7613C, symBinAddr: 0x769E8, symSize: 0x318 }
  - { offset: 0xA6789, size: 0x8, addend: 0x0, symName: __ZN3std4path10Components25parse_next_component_back17he6be2141c66faeadE, symObjAddr: 0x908B4, symBinAddr: 0x91008, symSize: 0x108 }
  - { offset: 0xA695C, size: 0x8, addend: 0x0, symName: __ZN3std4path10Components15len_before_body17h1e464f5ae969685dE, symObjAddr: 0x909BC, symBinAddr: 0x91110, symSize: 0x188 }
  - { offset: 0xA6974, size: 0x8, addend: 0x0, symName: __ZN3std4path10Components15len_before_body17h1e464f5ae969685dE, symObjAddr: 0x909BC, symBinAddr: 0x91110, symSize: 0x188 }
  - { offset: 0xA698A, size: 0x8, addend: 0x0, symName: __ZN3std4path10Components15len_before_body17h1e464f5ae969685dE, symObjAddr: 0x909BC, symBinAddr: 0x91110, symSize: 0x188 }
  - { offset: 0xA6B5B, size: 0x8, addend: 0x0, symName: '__ZN95_$LT$std..path..Components$u20$as$u20$core..iter..traits..double_ended..DoubleEndedIterator$GT$9next_back17h49bd41c7db94105fE', symObjAddr: 0x75DD4, symBinAddr: 0x76680, symSize: 0x368 }
  - { offset: 0xA6DC5, size: 0x8, addend: 0x0, symName: '__ZN80_$LT$std..path..Components$u20$as$u20$core..iter..traits..iterator..Iterator$GT$4next17hcff8e9708d61f67cE', symObjAddr: 0x918E4, symBinAddr: 0x91E0C, symSize: 0x3C4 }
  - { offset: 0xA71FE, size: 0x8, addend: 0x0, symName: '__ZN75_$LT$std..fs..ReadDir$u20$as$u20$core..iter..traits..iterator..Iterator$GT$4next17h624b5209b338bae0E', symObjAddr: 0x790C8, symBinAddr: 0x79974, symSize: 0x170 }
  - { offset: 0xA7568, size: 0x8, addend: 0x0, symName: __ZN3std4time7Instant3now17h25c02d4f02100e4bE, symObjAddr: 0x94588, symBinAddr: 0x942AC, symSize: 0x118 }
  - { offset: 0xA889B, size: 0x8, addend: 0x0, symName: '__ZN4core3ptr81drop_in_place$LT$core..result..Result$LT$$LP$$RP$$C$std..io..error..Error$GT$$GT$17h07bd59f82b520ce9E', symObjAddr: 0x70988, symBinAddr: 0x717C8, symSize: 0x94 }
  - { offset: 0xA8BBE, size: 0x8, addend: 0x0, symName: '__ZN4core3ptr42drop_in_place$LT$std..io..error..Error$GT$17hb81648a628dcf123E', symObjAddr: 0x70F40, symBinAddr: 0x71AF8, symSize: 0x94 }
  - { offset: 0xA8E9D, size: 0x8, addend: 0x0, symName: '__ZN4core3ptr64drop_in_place$LT$std..sys..pal..unix..sync..mutex..AttrGuard$GT$17hb3fa9e627a499e3eE', symObjAddr: 0x715C4, symBinAddr: 0x71F80, symSize: 0x44 }
  - { offset: 0xA8EC0, size: 0x8, addend: 0x0, symName: '__ZN4core3ptr42drop_in_place$LT$alloc..string..String$GT$17h885d109fd14c14c6E', symObjAddr: 0x7225C, symBinAddr: 0x72BF4, symSize: 0x24 }
  - { offset: 0xA8F97, size: 0x8, addend: 0x0, symName: '__ZN4core3ptr55drop_in_place$LT$std..sys..backtrace..BacktraceLock$GT$17hc85827ac92fd1300E', symObjAddr: 0x723B8, symBinAddr: 0x72D50, symSize: 0x54 }
  - { offset: 0xA8FB6, size: 0x8, addend: 0x0, symName: '__ZN4core3ptr55drop_in_place$LT$std..sys..backtrace..BacktraceLock$GT$17hc85827ac92fd1300E', symObjAddr: 0x723B8, symBinAddr: 0x72D50, symSize: 0x54 }
  - { offset: 0xA8FCC, size: 0x8, addend: 0x0, symName: '__ZN4core3ptr55drop_in_place$LT$std..sys..backtrace..BacktraceLock$GT$17hc85827ac92fd1300E', symObjAddr: 0x723B8, symBinAddr: 0x72D50, symSize: 0x54 }
  - { offset: 0xA90F3, size: 0x8, addend: 0x0, symName: '__ZN4core3ptr66drop_in_place$LT$std..backtrace_rs..backtrace..libunwind..Bomb$GT$17h01f7d9f86fcd0c49E', symObjAddr: 0x727A4, symBinAddr: 0xB2AD0, symSize: 0x38 }
  - { offset: 0xA93F8, size: 0x8, addend: 0x0, symName: '__ZN4core3ptr70drop_in_place$LT$std..backtrace_rs..symbolize..gimli..stash..Stash$GT$17h771731bd3fc40e53E', symObjAddr: 0x75B54, symBinAddr: 0x76400, symSize: 0xA0 }
  - { offset: 0xA9A3A, size: 0x8, addend: 0x0, symName: '__ZN4core3ptr93drop_in_place$LT$core..option..Option$LT$std..backtrace_rs..symbolize..gimli..Mapping$GT$$GT$17h4fb6fb06cdfe328eE', symObjAddr: 0x79478, symBinAddr: 0x79D24, symSize: 0xE8 }
  - { offset: 0xA9DFA, size: 0x8, addend: 0x0, symName: '__ZN4core3ptr65drop_in_place$LT$std..backtrace_rs..symbolize..gimli..Context$GT$17h85d08c7cf3b4722aE', symObjAddr: 0x79560, symBinAddr: 0x79E0C, symSize: 0x190 }
  - { offset: 0xAA422, size: 0x8, addend: 0x0, symName: '__ZN4core3ptr275drop_in_place$LT$gimli..read..line..LineRows$LT$gimli..read..endian_slice..EndianSlice$LT$gimli..endianity..LittleEndian$GT$$C$gimli..read..line..IncompleteLineProgram$LT$gimli..read..endian_slice..EndianSlice$LT$gimli..endianity..LittleEndian$GT$$C$usize$GT$$C$usize$GT$$GT$17h9cc4c786c7d3dd18E', symObjAddr: 0x7C5D4, symBinAddr: 0x7CE80, symSize: 0x64 }
  - { offset: 0xAA715, size: 0x8, addend: 0x0, symName: '__ZN4core3ptr73drop_in_place$LT$alloc..vec..Vec$LT$addr2line..line..LineSequence$GT$$GT$17h0f7e7093b00892b2E', symObjAddr: 0x7C638, symBinAddr: 0x7CEE4, symSize: 0x70 }
  - { offset: 0xAA894, size: 0x8, addend: 0x0, symName: '__ZN4core3ptr77drop_in_place$LT$alloc..boxed..Box$LT$$u5b$alloc..string..String$u5d$$GT$$GT$17hb74d1bce1bcdf062E', symObjAddr: 0x7C6A8, symBinAddr: 0x7CF54, symSize: 0x5C }
  - { offset: 0xAA8AC, size: 0x8, addend: 0x0, symName: '__ZN4core3ptr77drop_in_place$LT$alloc..boxed..Box$LT$$u5b$alloc..string..String$u5d$$GT$$GT$17hb74d1bce1bcdf062E', symObjAddr: 0x7C6A8, symBinAddr: 0x7CF54, symSize: 0x5C }
  - { offset: 0xAAA00, size: 0x8, addend: 0x0, symName: '__ZN4core3ptr65drop_in_place$LT$alloc..vec..Vec$LT$alloc..string..String$GT$$GT$17hd83c0765a63f5198E', symObjAddr: 0x7CA44, symBinAddr: 0x7D2F0, symSize: 0x70 }
  - { offset: 0xAABB9, size: 0x8, addend: 0x0, symName: '__ZN4core3ptr92drop_in_place$LT$core..result..Result$LT$addr2line..line..Lines$C$gimli..read..Error$GT$$GT$17hea0acd3e0530442eE', symObjAddr: 0x7CF48, symBinAddr: 0x7D7F4, symSize: 0xAC }
  - { offset: 0xAB02F, size: 0x8, addend: 0x0, symName: '__ZN4core3ptr138drop_in_place$LT$addr2line..function..LazyFunction$LT$gimli..read..endian_slice..EndianSlice$LT$gimli..endianity..LittleEndian$GT$$GT$$GT$17hf484a9c89f7ccb36E', symObjAddr: 0x81B00, symBinAddr: 0x823AC, symSize: 0x50 }
  - { offset: 0xAB047, size: 0x8, addend: 0x0, symName: '__ZN4core3ptr138drop_in_place$LT$addr2line..function..LazyFunction$LT$gimli..read..endian_slice..EndianSlice$LT$gimli..endianity..LittleEndian$GT$$GT$$GT$17hf484a9c89f7ccb36E', symObjAddr: 0x81B00, symBinAddr: 0x823AC, symSize: 0x50 }
  - { offset: 0xAB05D, size: 0x8, addend: 0x0, symName: '__ZN4core3ptr138drop_in_place$LT$addr2line..function..LazyFunction$LT$gimli..read..endian_slice..EndianSlice$LT$gimli..endianity..LittleEndian$GT$$GT$$GT$17hf484a9c89f7ccb36E', symObjAddr: 0x81B00, symBinAddr: 0x823AC, symSize: 0x50 }
  - { offset: 0xAB073, size: 0x8, addend: 0x0, symName: '__ZN4core3ptr138drop_in_place$LT$addr2line..function..LazyFunction$LT$gimli..read..endian_slice..EndianSlice$LT$gimli..endianity..LittleEndian$GT$$GT$$GT$17hf484a9c89f7ccb36E', symObjAddr: 0x81B00, symBinAddr: 0x823AC, symSize: 0x50 }
  - { offset: 0xAB1B7, size: 0x8, addend: 0x0, symName: '__ZN4core3ptr161drop_in_place$LT$alloc..vec..Vec$LT$addr2line..function..LazyFunction$LT$gimli..read..endian_slice..EndianSlice$LT$gimli..endianity..LittleEndian$GT$$GT$$GT$$GT$17h8a1ae5b7bb8015d0E', symObjAddr: 0x827E0, symBinAddr: 0x8308C, symSize: 0x8C }
  - { offset: 0xAB419, size: 0x8, addend: 0x0, symName: '__ZN4core3ptr173drop_in_place$LT$alloc..boxed..Box$LT$$u5b$addr2line..function..LazyFunction$LT$gimli..read..endian_slice..EndianSlice$LT$gimli..endianity..LittleEndian$GT$$GT$$u5d$$GT$$GT$17h56f63c2cf1255b60E', symObjAddr: 0x8286C, symBinAddr: 0x83118, symSize: 0x78 }
  - { offset: 0xAB431, size: 0x8, addend: 0x0, symName: '__ZN4core3ptr173drop_in_place$LT$alloc..boxed..Box$LT$$u5b$addr2line..function..LazyFunction$LT$gimli..read..endian_slice..EndianSlice$LT$gimli..endianity..LittleEndian$GT$$GT$$u5d$$GT$$GT$17h56f63c2cf1255b60E', symObjAddr: 0x8286C, symBinAddr: 0x83118, symSize: 0x78 }
  - { offset: 0xAB620, size: 0x8, addend: 0x0, symName: '__ZN4core3ptr184drop_in_place$LT$core..result..Result$LT$addr2line..function..Functions$LT$gimli..read..endian_slice..EndianSlice$LT$gimli..endianity..LittleEndian$GT$$GT$$C$gimli..read..Error$GT$$GT$17he285276e7e28d8ccE', symObjAddr: 0x828E4, symBinAddr: 0x83190, symSize: 0x9C }
  - { offset: 0xAB99F, size: 0x8, addend: 0x0, symName: '__ZN4core3ptr60drop_in_place$LT$gimli..read..abbrev..AbbreviationsCache$GT$17hf18c62e00670181eE', symObjAddr: 0x86360, symBinAddr: 0x86C0C, symSize: 0xBC }
  - { offset: 0xABBC9, size: 0x8, addend: 0x0, symName: '__ZN4core3ptr280drop_in_place$LT$$LT$alloc..collections..btree..map..IntoIter$LT$K$C$V$C$A$GT$$u20$as$u20$core..ops..drop..Drop$GT$..drop..DropGuard$LT$u64$C$core..result..Result$LT$alloc..sync..Arc$LT$gimli..read..abbrev..Abbreviations$GT$$C$gimli..read..Error$GT$$C$alloc..alloc..Global$GT$$GT$17h749c311a717cdcc8E', symObjAddr: 0x8663C, symBinAddr: 0x86EE8, symSize: 0x74 }
  - { offset: 0xABDFA, size: 0x8, addend: 0x0, symName: '__ZN4core3ptr55drop_in_place$LT$gimli..read..abbrev..Abbreviations$GT$17he6a6a37a360af967E', symObjAddr: 0x866B0, symBinAddr: 0x86F5C, symSize: 0x218 }
  - { offset: 0xAC5BE, size: 0x8, addend: 0x0, symName: '__ZN4core3ptr130drop_in_place$LT$addr2line..unit..ResUnits$LT$gimli..read..endian_slice..EndianSlice$LT$gimli..endianity..LittleEndian$GT$$GT$$GT$17h6e35c509d0976048E', symObjAddr: 0x86C68, symBinAddr: 0x87514, symSize: 0xB0 }
  - { offset: 0xAC77B, size: 0x8, addend: 0x0, symName: '__ZN4core3ptr130drop_in_place$LT$addr2line..unit..SupUnits$LT$gimli..read..endian_slice..EndianSlice$LT$gimli..endianity..LittleEndian$GT$$GT$$GT$17h9d3c4a5cb16f732cE', symObjAddr: 0x86D18, symBinAddr: 0x875C4, symSize: 0x134 }
  - { offset: 0xACC27, size: 0x8, addend: 0x0, symName: '__ZN4core3ptr71drop_in_place$LT$std..backtrace_rs..symbolize..gimli..macho..Object$GT$17h4577a1feb557b39dE', symObjAddr: 0x86E4C, symBinAddr: 0x876F8, symSize: 0xA0 }
  - { offset: 0xACF80, size: 0x8, addend: 0x0, symName: '__ZN4core3ptr131drop_in_place$LT$$u5b$core..option..Option$LT$core..option..Option$LT$std..backtrace_rs..symbolize..gimli..Mapping$GT$$GT$$u5d$$GT$17h3816c52799c4e843E', symObjAddr: 0x86EEC, symBinAddr: 0x87798, symSize: 0x170 }
  - { offset: 0xAD33C, size: 0x8, addend: 0x0, symName: '__ZN4core3ptr181drop_in_place$LT$core..option..Option$LT$gimli..read..line..IncompleteLineProgram$LT$gimli..read..endian_slice..EndianSlice$LT$gimli..endianity..LittleEndian$GT$$C$usize$GT$$GT$$GT$17ha4778c03b9937035E', symObjAddr: 0x8705C, symBinAddr: 0x87908, symSize: 0x70 }
  - { offset: 0xAD62F, size: 0x8, addend: 0x0, symName: '__ZN4core3ptr129drop_in_place$LT$addr2line..unit..SupUnit$LT$gimli..read..endian_slice..EndianSlice$LT$gimli..endianity..LittleEndian$GT$$GT$$GT$17h884531cfbc6ed240E', symObjAddr: 0x870CC, symBinAddr: 0x87978, symSize: 0xA8 }
  - { offset: 0xADA39, size: 0x8, addend: 0x0, symName: '__ZN4core3ptr129drop_in_place$LT$addr2line..unit..ResUnit$LT$gimli..read..endian_slice..EndianSlice$LT$gimli..endianity..LittleEndian$GT$$GT$$GT$17h995a6814e291c2abE', symObjAddr: 0x87174, symBinAddr: 0x87A20, symSize: 0x210 }
  - { offset: 0xAE4EB, size: 0x8, addend: 0x0, symName: '__ZN4core3ptr231drop_in_place$LT$core..result..Result$LT$core..option..Option$LT$alloc..boxed..Box$LT$addr2line..unit..DwoUnit$LT$gimli..read..endian_slice..EndianSlice$LT$gimli..endianity..LittleEndian$GT$$GT$$GT$$GT$$C$gimli..read..Error$GT$$GT$17h5a29cc001c5e4689E', symObjAddr: 0x87384, symBinAddr: 0x87C30, symSize: 0x10C }
  - { offset: 0xAEA2C, size: 0x8, addend: 0x0, symName: '__ZN4core3ptr137drop_in_place$LT$gimli..read..dwarf..Unit$LT$gimli..read..endian_slice..EndianSlice$LT$gimli..endianity..LittleEndian$GT$$C$usize$GT$$GT$17h84ac01b0bea79cd9E', symObjAddr: 0x87490, symBinAddr: 0x87D3C, symSize: 0xA8 }
  - { offset: 0xAEDEF, size: 0x8, addend: 0x0, symName: '__ZN4core3ptr82drop_in_place$LT$alloc..sync..ArcInner$LT$std..sys..fs..unix..InnerReadDir$GT$$GT$17h794070bc11f791ecE', symObjAddr: 0x876A4, symBinAddr: 0x87EAC, symSize: 0x58 }
  - { offset: 0xAF002, size: 0x8, addend: 0x0, symName: '__ZN4core3ptr159drop_in_place$LT$alloc..sync..ArcInner$LT$gimli..read..dwarf..Dwarf$LT$gimli..read..endian_slice..EndianSlice$LT$gimli..endianity..LittleEndian$GT$$GT$$GT$$GT$17hc6fc0b433048fc24E', symObjAddr: 0x87844, symBinAddr: 0x8804C, symSize: 0x5C }
  - { offset: 0xAF0E6, size: 0x8, addend: 0x0, symName: '__ZN4core3ptr152drop_in_place$LT$alloc..vec..Vec$LT$addr2line..unit..ResUnit$LT$gimli..read..endian_slice..EndianSlice$LT$gimli..endianity..LittleEndian$GT$$GT$$GT$$GT$17h909fb31e82e5639cE', symObjAddr: 0x8A154, symBinAddr: 0x8A8A8, symSize: 0xAC }
  - { offset: 0xAF290, size: 0x8, addend: 0x0, symName: '__ZN4core3ptr152drop_in_place$LT$alloc..vec..Vec$LT$addr2line..unit..SupUnit$LT$gimli..read..endian_slice..EndianSlice$LT$gimli..endianity..LittleEndian$GT$$GT$$GT$$GT$17he01e2d755e5c8d4eE', symObjAddr: 0x8A200, symBinAddr: 0x8A954, symSize: 0x144 }
  - { offset: 0xAF7C4, size: 0x8, addend: 0x0, symName: '__ZN4core3ptr123drop_in_place$LT$addr2line..Context$LT$gimli..read..endian_slice..EndianSlice$LT$gimli..endianity..LittleEndian$GT$$GT$$GT$17h06cb15513202a16dE', symObjAddr: 0x8AAFC, symBinAddr: 0x8B250, symSize: 0x74 }
  - { offset: 0xAF8CA, size: 0x8, addend: 0x0, symName: '__ZN4core3ptr144drop_in_place$LT$alloc..vec..Vec$LT$core..option..Option$LT$core..option..Option$LT$std..backtrace_rs..symbolize..gimli..Mapping$GT$$GT$$GT$$GT$17h2e0c95bc42bfa3a8E', symObjAddr: 0x8DADC, symBinAddr: 0x8E230, symSize: 0x68 }
  - { offset: 0xAFA97, size: 0x8, addend: 0x0, symName: '__ZN4core3ptr44drop_in_place$LT$object..read..ObjectMap$GT$17h9e277ba2a639612aE', symObjAddr: 0x8E1E8, symBinAddr: 0x8E93C, symSize: 0x44 }
  - { offset: 0xAFC13, size: 0x8, addend: 0x0, symName: '__ZN4core3ptr72drop_in_place$LT$core..option..Option$LT$object..read..ObjectMap$GT$$GT$17ha8db393584068b4bE', symObjAddr: 0x8E22C, symBinAddr: 0x8E980, symSize: 0x50 }
  - { offset: 0xAFE28, size: 0x8, addend: 0x0, symName: '__ZN4core3ptr119drop_in_place$LT$std..io..default_write_fmt..Adapter$LT$std..io..cursor..Cursor$LT$$RF$mut$u20$$u5b$u8$u5d$$GT$$GT$$GT$17hf95d07e08636017aE', symObjAddr: 0x91CA8, symBinAddr: 0x921D0, symSize: 0x94 }
  - { offset: 0xB0176, size: 0x8, addend: 0x0, symName: '__ZN4core3ptr79drop_in_place$LT$std..sync..poison..rwlock..RwLockReadGuard$LT$$LP$$RP$$GT$$GT$17h4896a4cd02dab174E', symObjAddr: 0x929CC, symBinAddr: 0x92EA0, symSize: 0x80 }
  - { offset: 0xB0274, size: 0x8, addend: 0x0, symName: '__ZN4core3ptr128drop_in_place$LT$core..result..Result$LT$$RF$std..thread..Thread$C$$LP$$RF$std..thread..Thread$C$std..thread..Thread$RP$$GT$$GT$17h4a74471a459abb21E', symObjAddr: 0x92EE8, symBinAddr: 0x93158, symSize: 0x30 }
  - { offset: 0xB0354, size: 0x8, addend: 0x0, symName: '__ZN4core3ptr48drop_in_place$LT$alloc..ffi..c_str..NulError$GT$17hdcf4518307a547a7E', symObjAddr: 0x92F54, symBinAddr: 0x931C4, symSize: 0x24 }
  - { offset: 0xB04C5, size: 0x8, addend: 0x0, symName: '__ZN4core3ptr55drop_in_place$LT$std..thread..spawnhook..SpawnHooks$GT$17h05cc5fe5f967460dE', symObjAddr: 0x93CF8, symBinAddr: 0x93EE8, symSize: 0x88 }
  - { offset: 0xB05E8, size: 0x8, addend: 0x0, symName: '__ZN4core3ptr154drop_in_place$LT$alloc..boxed..Box$LT$dyn$u20$core..ops..function..FnOnce$LT$$LP$$RP$$GT$$u2b$Output$u20$$u3d$$u20$$LP$$RP$$u2b$core..marker..Send$GT$$GT$17h6a5b2457fcc1a80eE', symObjAddr: 0x93D80, symBinAddr: 0x93F70, symSize: 0x70 }
  - { offset: 0xB0761, size: 0x8, addend: 0x0, symName: '__ZN4core3ptr177drop_in_place$LT$alloc..vec..Vec$LT$alloc..boxed..Box$LT$dyn$u20$core..ops..function..FnOnce$LT$$LP$$RP$$GT$$u2b$Output$u20$$u3d$$u20$$LP$$RP$$u2b$core..marker..Send$GT$$GT$$GT$17hdcae1b6937ffb51bE', symObjAddr: 0x93DF0, symBinAddr: 0x93FE0, symSize: 0xE0 }
  - { offset: 0xB0A5C, size: 0x8, addend: 0x0, symName: '__ZN4core3ptr193drop_in_place$LT$alloc..vec..into_iter..IntoIter$LT$alloc..boxed..Box$LT$dyn$u20$core..ops..function..FnOnce$LT$$LP$$RP$$GT$$u2b$Output$u20$$u3d$$u20$$LP$$RP$$u2b$core..marker..Send$GT$$GT$$GT$17hedbdd62a76ed45f4E', symObjAddr: 0x93F54, symBinAddr: 0x940C0, symSize: 0xEC }
  - { offset: 0xB0E57, size: 0x8, addend: 0x0, symName: '__ZN4core3ptr77drop_in_place$LT$std..panicking..begin_panic_handler..FormatStringPayload$GT$17hd647ef0a09c67ad2E', symObjAddr: 0x94804, symBinAddr: 0x94528, symSize: 0x30 }
  - { offset: 0xB0F56, size: 0x8, addend: 0x0, symName: '__ZN4core3ptr131drop_in_place$LT$alloc..boxed..Box$LT$dyn$u20$core..ops..function..FnOnce$LT$$LP$$RP$$GT$$u2b$Output$u20$$u3d$$u20$$LP$$RP$$GT$$GT$17hd02d72d42495e214E', symObjAddr: 0x95434, symBinAddr: 0x95158, symSize: 0x24 }
  - { offset: 0xB21D3, size: 0x8, addend: 0x0, symName: '__ZN4core4cell4once17OnceCell$LT$T$GT$8try_init17hdfb7c26b214c95c8E', symObjAddr: 0x70A98, symBinAddr: 0xB2830, symSize: 0x13C }
  - { offset: 0xB2884, size: 0x8, addend: 0x0, symName: '__ZN4core3ops8function6FnOnce40call_once$u7b$$u7b$vtable.shim$u7d$$u7d$17h8046fa138976872eE', symObjAddr: 0x727DC, symBinAddr: 0x7313C, symSize: 0x10 }
  - { offset: 0xB2943, size: 0x8, addend: 0x0, symName: '__ZN4core3ops8function6FnOnce40call_once$u7b$$u7b$vtable.shim$u7d$$u7d$17h953ee306e8e7863fE', symObjAddr: 0x91440, symBinAddr: 0x91968, symSize: 0xB0 }
  - { offset: 0xB2BFE, size: 0x8, addend: 0x0, symName: '__ZN4core3ops8function6FnOnce40call_once$u7b$$u7b$vtable.shim$u7d$$u7d$17hb2a0fdcee6ba8a12E', symObjAddr: 0x93974, symBinAddr: 0x93BD8, symSize: 0x18 }
  - { offset: 0xB2C51, size: 0x8, addend: 0x0, symName: '__ZN4core3ops8function6FnOnce40call_once$u7b$$u7b$vtable.shim$u7d$$u7d$17h8f89b802168bb7afE', symObjAddr: 0x939A4, symBinAddr: 0x93C08, symSize: 0x18 }
  - { offset: 0xB2D4A, size: 0x8, addend: 0x0, symName: __ZN4core3ops8function2Fn4call17hb72f97f03aaffa25E, symObjAddr: 0x94DFC, symBinAddr: 0x94B20, symSize: 0x38 }
  - { offset: 0xB4971, size: 0x8, addend: 0x0, symName: '__ZN44_$LT$$RF$T$u20$as$u20$core..fmt..Display$GT$3fmt17ha8344383e1785c1dE', symObjAddr: 0x70804, symBinAddr: 0x71644, symSize: 0x68 }
  - { offset: 0xB4A63, size: 0x8, addend: 0x0, symName: '__ZN4core3fmt3num50_$LT$impl$u20$core..fmt..Debug$u20$for$u20$i32$GT$3fmt17h36ba40624ead6bfaE.996', symObjAddr: 0x722BC, symBinAddr: 0x72C54, symSize: 0xFC }
  - { offset: 0xB4BDA, size: 0x8, addend: 0x0, symName: '__ZN4core3fmt3num52_$LT$impl$u20$core..fmt..Debug$u20$for$u20$usize$GT$3fmt17hcd6e8a8f4bb8fc06E.1009', symObjAddr: 0x9332C, symBinAddr: 0x9359C, symSize: 0xE4 }
  - { offset: 0xB4D17, size: 0x8, addend: 0x0, symName: '__ZN42_$LT$$RF$T$u20$as$u20$core..fmt..Debug$GT$3fmt17h1a6dd42887957859E', symObjAddr: 0x7162C, symBinAddr: 0x71FC4, symSize: 0x100 }
  - { offset: 0xB4EBB, size: 0x8, addend: 0x0, symName: '__ZN42_$LT$$RF$T$u20$as$u20$core..fmt..Debug$GT$3fmt17h5b7d431c62b14515E', symObjAddr: 0x92FC0, symBinAddr: 0x93230, symSize: 0x1F4 }
  - { offset: 0xB5163, size: 0x8, addend: 0x0, symName: '__ZN42_$LT$$RF$T$u20$as$u20$core..fmt..Debug$GT$3fmt17hdb4b147d8b541775E', symObjAddr: 0x931B4, symBinAddr: 0x93424, symSize: 0x178 }
  - { offset: 0xB5403, size: 0x8, addend: 0x0, symName: '__ZN50_$LT$$BP$mut$u20$T$u20$as$u20$core..fmt..Debug$GT$3fmt17h143dbe7cb894ff92E', symObjAddr: 0x75384, symBinAddr: 0x75CE4, symSize: 0xC8 }
  - { offset: 0xB5553, size: 0x8, addend: 0x0, symName: __ZN4core3fmt5Write10write_char17h0ebe110cae9c7308E, symObjAddr: 0x91E30, symBinAddr: 0x92358, symSize: 0x1A4 }
  - { offset: 0xB59EE, size: 0x8, addend: 0x0, symName: __ZN4core3fmt5Write9write_fmt17h06de8c5560524bf1E, symObjAddr: 0x91FD4, symBinAddr: 0x924FC, symSize: 0x28 }
  - { offset: 0xB5A4B, size: 0x8, addend: 0x0, symName: __ZN4core3fmt5Write10write_char17h9aa5234a79a81b60E, symObjAddr: 0x9353C, symBinAddr: 0x937AC, symSize: 0x1D4 }
  - { offset: 0xB5EA0, size: 0x8, addend: 0x0, symName: __ZN4core3fmt5Write9write_fmt17h7deba5877eb5ebb8E, symObjAddr: 0x93710, symBinAddr: 0x93980, symSize: 0x28 }
  - { offset: 0xB5EFD, size: 0x8, addend: 0x0, symName: __ZN4core3fmt5Write9write_fmt17h85d31f0218823a49E, symObjAddr: 0x94C3C, symBinAddr: 0x94960, symSize: 0x28 }
  - { offset: 0xB71E5, size: 0x8, addend: 0x0, symName: __ZN4core5slice4sort8unstable7ipnsort17h125ca60ad4813c63E, symObjAddr: 0x8DB44, symBinAddr: 0x8E298, symSize: 0xD4 }
  - { offset: 0xB733C, size: 0x8, addend: 0x0, symName: __ZN4core5slice4sort8unstable7ipnsort17hf84b165459e2f21eE, symObjAddr: 0x8DC18, symBinAddr: 0x8E36C, symSize: 0x174 }
  - { offset: 0xB7690, size: 0x8, addend: 0x0, symName: __ZN4core5slice4sort8unstable9quicksort9quicksort17h64d359afb9a42b66E, symObjAddr: 0x8F09C, symBinAddr: 0x8F7F0, symSize: 0x574 }
  - { offset: 0xB82EC, size: 0x8, addend: 0x0, symName: __ZN4core5slice4sort8unstable9quicksort9quicksort17h7e2ed2e0a6645622E, symObjAddr: 0x8FE24, symBinAddr: 0x90578, symSize: 0x408 }
  - { offset: 0xB8BE4, size: 0x8, addend: 0x0, symName: __ZN4core5slice4sort8unstable8heapsort8heapsort17h979493cb42857821E, symObjAddr: 0x8FA10, symBinAddr: 0x90164, symSize: 0x160 }
  - { offset: 0xB8EFE, size: 0x8, addend: 0x0, symName: __ZN4core5slice4sort8unstable8heapsort8heapsort17h8fe55ab15965c53bE, symObjAddr: 0x906D8, symBinAddr: 0x90E2C, symSize: 0x10C }
  - { offset: 0xB912D, size: 0x8, addend: 0x0, symName: __ZN4core5slice4sort6stable14driftsort_main17h1137c8eb25ca2763E, symObjAddr: 0x7C704, symBinAddr: 0x7CFB0, symSize: 0x120 }
  - { offset: 0xB959D, size: 0x8, addend: 0x0, symName: __ZN4core5slice4sort6stable5drift4sort17hb2a9b961eece8213E, symObjAddr: 0x7D1E8, symBinAddr: 0x7DA94, symSize: 0x4E8 }
  - { offset: 0xB9D13, size: 0x8, addend: 0x0, symName: __ZN4core5slice4sort6stable5drift4sort17h2c389344a6265b02E, symObjAddr: 0x841DC, symBinAddr: 0x84A88, symSize: 0x600 }
  - { offset: 0xBA4B6, size: 0x8, addend: 0x0, symName: __ZN4core5slice4sort6stable5drift4sort17he2cada4931ef254dE, symObjAddr: 0x85570, symBinAddr: 0x85E1C, symSize: 0x530 }
  - { offset: 0xBAC17, size: 0x8, addend: 0x0, symName: __ZN4core5slice4sort6stable5drift4sort17he4ad36c629567a7eE, symObjAddr: 0x8AB70, symBinAddr: 0x8B2C4, symSize: 0x4E8 }
  - { offset: 0xBB38D, size: 0x8, addend: 0x0, symName: __ZN4core5slice4sort6stable5drift4sort17hc62ed80823b9f2aeE, symObjAddr: 0x8CA60, symBinAddr: 0x8D1B4, symSize: 0x4D4 }
  - { offset: 0xBBA7D, size: 0x8, addend: 0x0, symName: __ZN4core5slice4sort6stable5drift4sort17h56accce1e58486f4E, symObjAddr: 0x8E27C, symBinAddr: 0x8E9D0, symSize: 0x538 }
  - { offset: 0xBC412, size: 0x8, addend: 0x0, symName: __ZN4core5slice4sort6stable9quicksort9quicksort17h303148127d369619E, symObjAddr: 0x7D6D0, symBinAddr: 0x7DF7C, symSize: 0x6D4 }
  - { offset: 0xBCF5F, size: 0x8, addend: 0x0, symName: __ZN4core5slice4sort6stable9quicksort9quicksort17h3632c446be8b4108E, symObjAddr: 0x847DC, symBinAddr: 0x85088, symSize: 0x730 }
  - { offset: 0xBD6F4, size: 0x8, addend: 0x0, symName: __ZN4core5slice4sort6stable9quicksort9quicksort17h63928b3dfe206fadE, symObjAddr: 0x85AA0, symBinAddr: 0x8634C, symSize: 0x7F0 }
  - { offset: 0xBE32B, size: 0x8, addend: 0x0, symName: __ZN4core5slice4sort6stable9quicksort9quicksort17hafbdc9fb4db3900cE, symObjAddr: 0x8B058, symBinAddr: 0x8B7AC, symSize: 0x6DC }
  - { offset: 0xBEE78, size: 0x8, addend: 0x0, symName: __ZN4core5slice4sort6stable9quicksort9quicksort17h447d0d0f92e2e70eE, symObjAddr: 0x8CF34, symBinAddr: 0x8D688, symSize: 0x824 }
  - { offset: 0xBFEDF, size: 0x8, addend: 0x0, symName: __ZN4core5slice4sort6stable9quicksort9quicksort17h819d02d076c15949E, symObjAddr: 0x8E7B4, symBinAddr: 0x8EF08, symSize: 0x818 }
  - { offset: 0xC0B24, size: 0x8, addend: 0x0, symName: __ZN4core5slice4sort6stable14driftsort_main17h0aca59be9fe5c559E, symObjAddr: 0x7FD14, symBinAddr: 0x805C0, symSize: 0x134 }
  - { offset: 0xC0E9B, size: 0x8, addend: 0x0, symName: __ZN4core5slice4sort6stable14driftsort_main17hc48f74f1803e57dfE, symObjAddr: 0x839B0, symBinAddr: 0x8425C, symSize: 0x118 }
  - { offset: 0xC11CD, size: 0x8, addend: 0x0, symName: __ZN4core5slice4sort6stable14driftsort_main17hf91d9c601a192847E, symObjAddr: 0x87C04, symBinAddr: 0x8840C, symSize: 0x118 }
  - { offset: 0xC14FF, size: 0x8, addend: 0x0, symName: __ZN4core5slice4sort6stable14driftsort_main17hd5938ddec050be4aE, symObjAddr: 0x8A03C, symBinAddr: 0x8A790, symSize: 0x118 }
  - { offset: 0xC1831, size: 0x8, addend: 0x0, symName: __ZN4core5slice4sort6stable14driftsort_main17h0bf24ea1584c74f3E, symObjAddr: 0x8DE80, symBinAddr: 0x8E5D4, symSize: 0x134 }
  - { offset: 0xC1C80, size: 0x8, addend: 0x0, symName: __ZN4core5slice4sort6shared9smallsort25insertion_sort_shift_left17ha91fe8256d8e1f83E, symObjAddr: 0x7C824, symBinAddr: 0x7D0D0, symSize: 0xB0 }
  - { offset: 0xC1E2D, size: 0x8, addend: 0x0, symName: __ZN4core5slice4sort6shared9smallsort25insertion_sort_shift_left17he3f64edff203a0ddE, symObjAddr: 0x83AC8, symBinAddr: 0x84374, symSize: 0xC4 }
  - { offset: 0xC1F8F, size: 0x8, addend: 0x0, symName: __ZN4core5slice4sort6shared9smallsort12sort4_stable17h0b850f46d1c74cc1E, symObjAddr: 0x84F0C, symBinAddr: 0x857B8, symSize: 0x1A0 }
  - { offset: 0xC221A, size: 0x8, addend: 0x0, symName: __ZN4core5slice4sort6shared9smallsort12sort8_stable17h8559be6b3c0428cbE, symObjAddr: 0x8D758, symBinAddr: 0x8DEAC, symSize: 0x2B8 }
  - { offset: 0xC2700, size: 0x8, addend: 0x0, symName: __ZN4core5slice4sort6shared9smallsort25insertion_sort_shift_left17h0fa4585c1a450032E, symObjAddr: 0x8DD8C, symBinAddr: 0x8E4E0, symSize: 0xF4 }
  - { offset: 0xC28D9, size: 0x8, addend: 0x0, symName: __ZN4core5slice4sort6shared9smallsort25insertion_sort_shift_left17he864dc12138180eaE, symObjAddr: 0x8DFB4, symBinAddr: 0x8E708, symSize: 0xC4 }
  - { offset: 0xC2A80, size: 0x8, addend: 0x0, symName: __ZN4core5slice4sort6shared9smallsort18small_sort_general17h981c412301faf7f5E, symObjAddr: 0x8F610, symBinAddr: 0x8FD64, symSize: 0x400 }
  - { offset: 0xC2FD6, size: 0x8, addend: 0x0, symName: __ZN4core5slice4sort6shared9smallsort12sort4_stable17ha25962d3e8d8b4ccE, symObjAddr: 0x8FCA4, symBinAddr: 0x903F8, symSize: 0x180 }
  - { offset: 0xC3432, size: 0x8, addend: 0x0, symName: __ZN4core5slice4sort6shared9smallsort18small_sort_general17ha6671e0532ca2b6eE, symObjAddr: 0x9022C, symBinAddr: 0x90980, symSize: 0x4AC }
  - { offset: 0xC3BAA, size: 0x8, addend: 0x0, symName: __ZN4core5slice4sort6shared5pivot11median3_rec17h5913e01c3f17d4a6E, symObjAddr: 0x7DDA4, symBinAddr: 0x7E650, symSize: 0xCC }
  - { offset: 0xC3CB9, size: 0x8, addend: 0x0, symName: __ZN4core5slice4sort6shared5pivot11median3_rec17h7176224f79cd07beE, symObjAddr: 0x850AC, symBinAddr: 0x85958, symSize: 0x11C }
  - { offset: 0xC3DCB, size: 0x8, addend: 0x0, symName: __ZN4core5slice4sort6shared5pivot11median3_rec17h990bc514407fdc90E, symObjAddr: 0x86290, symBinAddr: 0x86B3C, symSize: 0xD0 }
  - { offset: 0xC3EDA, size: 0x8, addend: 0x0, symName: __ZN4core5slice4sort6shared5pivot11median3_rec17h31075d04885433e3E, symObjAddr: 0x8B734, symBinAddr: 0x8BE88, symSize: 0xCC }
  - { offset: 0xC3FE9, size: 0x8, addend: 0x0, symName: __ZN4core5slice4sort6shared5pivot11median3_rec17h1a315b4b7fcdef68E, symObjAddr: 0x8DA10, symBinAddr: 0x8E164, symSize: 0xCC }
  - { offset: 0xC4126, size: 0x8, addend: 0x0, symName: __ZN4core5slice4sort6shared5pivot11median3_rec17h42cb24baef62e961E, symObjAddr: 0x8EFCC, symBinAddr: 0x8F720, symSize: 0xD0 }
  - { offset: 0xC4235, size: 0x8, addend: 0x0, symName: __ZN4core5slice4sort6shared5pivot11median3_rec17hf292c3d7be565012E, symObjAddr: 0x8FB70, symBinAddr: 0x902C4, symSize: 0x134 }
  - { offset: 0xC4480, size: 0x8, addend: 0x0, symName: __ZN4core5slice4sort6shared5pivot11median3_rec17hab4d33cf3cee0329E, symObjAddr: 0x907E4, symBinAddr: 0x90F38, symSize: 0xD0 }
  - { offset: 0xC463E, size: 0x8, addend: 0x0, symName: '__ZN36_$LT$T$u20$as$u20$core..any..Any$GT$7type_id17h14d9ffa88172073aE', symObjAddr: 0x937F4, symBinAddr: 0x93A58, symSize: 0x30 }
  - { offset: 0xC4658, size: 0x8, addend: 0x0, symName: '__ZN36_$LT$T$u20$as$u20$core..any..Any$GT$7type_id17hf935afe422cbadc2E', symObjAddr: 0x94A54, symBinAddr: 0x94778, symSize: 0x30 }
  - { offset: 0xC4BD4, size: 0x8, addend: 0x0, symName: __ZN4core5panic12PanicPayload6as_str17h07aca80f76cd44bbE, symObjAddr: 0x937D4, symBinAddr: 0x93A44, symSize: 0x14 }
  - { offset: 0xC5BBD, size: 0x8, addend: 0x0, symName: __ZN4core9panicking13assert_failed17hc6ead09296598cbeE, symObjAddr: 0x71608, symBinAddr: 0xB2AAC, symSize: 0x24 }
  - { offset: 0xC5C08, size: 0x8, addend: 0x0, symName: '__ZN55_$LT$$RF$str$u20$as$u20$core..str..pattern..Pattern$GT$15is_contained_in17h4c75eb751cc959a8E.999', symObjAddr: 0x910B0, symBinAddr: 0x915D8, symSize: 0x390 }
  - { offset: 0xC62B7, size: 0x8, addend: 0x0, symName: '__ZN5alloc4sync16Arc$LT$T$C$A$GT$9drop_slow17h84d91d38a76d605dE', symObjAddr: 0x70A28, symBinAddr: 0x7185C, symSize: 0x70 }
  - { offset: 0xC6567, size: 0x8, addend: 0x0, symName: '__ZN5alloc4sync16Arc$LT$T$C$A$GT$9drop_slow17h17bd4f4ce3ee36bbE', symObjAddr: 0x79238, symBinAddr: 0x79AE4, symSize: 0xB0 }
  - { offset: 0xC69AE, size: 0x8, addend: 0x0, symName: '__ZN5alloc4sync16Arc$LT$T$C$A$GT$9drop_slow17hd2d61152feacbb1eE', symObjAddr: 0x7E67C, symBinAddr: 0x7EF28, symSize: 0xCC }
  - { offset: 0xC6C5C, size: 0x8, addend: 0x0, symName: '__ZN5alloc4sync16Arc$LT$T$C$A$GT$9drop_slow17h19375f4c283dbc46E', symObjAddr: 0x865AC, symBinAddr: 0x86E58, symSize: 0x90 }
  - { offset: 0xC6EC8, size: 0x8, addend: 0x0, symName: '__ZN5alloc4sync16Arc$LT$T$C$A$GT$9drop_slow17hfa00280e67b39300E', symObjAddr: 0x92F18, symBinAddr: 0x93188, symSize: 0x3C }
  - { offset: 0xC6FDB, size: 0x8, addend: 0x0, symName: '__ZN5alloc4sync16Arc$LT$T$C$A$GT$9drop_slow17hf9a7848f378fe0b4E', symObjAddr: 0x939D4, symBinAddr: 0x93C38, symSize: 0x128 }
  - { offset: 0xC84B4, size: 0x8, addend: 0x0, symName: '__ZN5alloc7raw_vec19RawVec$LT$T$C$A$GT$8grow_one17hd98103fa28f49619E', symObjAddr: 0x7C514, symBinAddr: 0x7CDC0, symSize: 0xC0 }
  - { offset: 0xC85E3, size: 0x8, addend: 0x0, symName: '__ZN5alloc7raw_vec19RawVec$LT$T$C$A$GT$8grow_one17h2c90e2d247ea58a6E', symObjAddr: 0x7C8D4, symBinAddr: 0x7D180, symSize: 0xC0 }
  - { offset: 0xC8706, size: 0x8, addend: 0x0, symName: '__ZN5alloc7raw_vec19RawVec$LT$T$C$A$GT$8grow_one17hf7748f5244248ad1E', symObjAddr: 0x7C994, symBinAddr: 0x7D240, symSize: 0xB0 }
  - { offset: 0xC88D0, size: 0x8, addend: 0x0, symName: '__ZN5alloc7raw_vec19RawVec$LT$T$C$A$GT$8grow_one17h6f3b83514459393cE', symObjAddr: 0x81980, symBinAddr: 0x8222C, symSize: 0xC0 }
  - { offset: 0xC89F3, size: 0x8, addend: 0x0, symName: '__ZN5alloc7raw_vec19RawVec$LT$T$C$A$GT$8grow_one17hae9a3e8f332830b1E', symObjAddr: 0x81A40, symBinAddr: 0x822EC, symSize: 0xC0 }
  - { offset: 0xC8B5B, size: 0x8, addend: 0x0, symName: '__ZN5alloc7raw_vec19RawVec$LT$T$C$A$GT$8grow_one17ha58cc13dec067c27E', symObjAddr: 0x851C8, symBinAddr: 0x85A74, symSize: 0xC0 }
  - { offset: 0xC8C7E, size: 0x8, addend: 0x0, symName: '__ZN5alloc7raw_vec19RawVec$LT$T$C$A$GT$8grow_one17h81fb28286fe39fc0E', symObjAddr: 0x85288, symBinAddr: 0x85B34, symSize: 0xB0 }
  - { offset: 0xC8DA1, size: 0x8, addend: 0x0, symName: '__ZN5alloc7raw_vec19RawVec$LT$T$C$A$GT$8grow_one17h310d9131a0998dbeE', symObjAddr: 0x868C8, symBinAddr: 0x87174, symSize: 0xB0 }
  - { offset: 0xC8EC4, size: 0x8, addend: 0x0, symName: '__ZN5alloc7raw_vec19RawVec$LT$T$C$A$GT$8grow_one17h3896d823145344e5E', symObjAddr: 0x87B54, symBinAddr: 0x8835C, symSize: 0xB0 }
  - { offset: 0xC9010, size: 0x8, addend: 0x0, symName: '__ZN5alloc7raw_vec19RawVec$LT$T$C$A$GT$8grow_one17h64691762110d7d5fE', symObjAddr: 0x89F80, symBinAddr: 0x8A6D4, symSize: 0xBC }
  - { offset: 0xC9140, size: 0x8, addend: 0x0, symName: '__ZN5alloc7raw_vec19RawVec$LT$T$C$A$GT$8grow_one17hd964ba0d9946b673E', symObjAddr: 0x8A344, symBinAddr: 0x8AA98, symSize: 0xBC }
  - { offset: 0xC928C, size: 0x8, addend: 0x0, symName: '__ZN5alloc7raw_vec19RawVec$LT$T$C$A$GT$8grow_one17h9f83487f52647878E', symObjAddr: 0x8BC40, symBinAddr: 0x8C394, symSize: 0xC4 }
  - { offset: 0xC93AE, size: 0x8, addend: 0x0, symName: '__ZN5alloc7raw_vec19RawVec$LT$T$C$A$GT$8grow_one17h8da8e5692f189cd8E', symObjAddr: 0x8C9B0, symBinAddr: 0x8D104, symSize: 0xB0 }
  - { offset: 0xC94DE, size: 0x8, addend: 0x0, symName: '__ZN5alloc7raw_vec19RawVec$LT$T$C$A$GT$8grow_one17h1af3d9d0da4516b9E', symObjAddr: 0x8E078, symBinAddr: 0x8E7CC, symSize: 0xB0 }
  - { offset: 0xC9601, size: 0x8, addend: 0x0, symName: '__ZN5alloc7raw_vec19RawVec$LT$T$C$A$GT$8grow_one17h7376a3125073bd3eE', symObjAddr: 0x8E128, symBinAddr: 0x8E87C, symSize: 0xC0 }
  - { offset: 0xC974E, size: 0x8, addend: 0x0, symName: '__ZN5alloc7raw_vec19RawVec$LT$T$C$A$GT$8grow_one17h4519bc45fd8f8463E', symObjAddr: 0x923A8, symBinAddr: 0x928D0, symSize: 0xF4 }
  - { offset: 0xCA724, size: 0x8, addend: 0x0, symName: '__ZN60_$LT$alloc..string..String$u20$as$u20$core..fmt..Display$GT$3fmt17hfe73be42a47143fcE.992', symObjAddr: 0x71440, symBinAddr: 0x71DFC, symSize: 0x1C }
  - { offset: 0xCA827, size: 0x8, addend: 0x0, symName: '__ZN58_$LT$alloc..string..String$u20$as$u20$core..fmt..Write$GT$9write_str17he8b8e479d4981e28E.1063', symObjAddr: 0x94A84, symBinAddr: 0x947A8, symSize: 0x80 }
  - { offset: 0xCA98B, size: 0x8, addend: 0x0, symName: '__ZN58_$LT$alloc..string..String$u20$as$u20$core..fmt..Write$GT$10write_char17hc05bb0c5ec75d476E.1064', symObjAddr: 0x94B04, symBinAddr: 0x94828, symSize: 0x138 }
  - { offset: 0xCABDA, size: 0x8, addend: 0x0, symName: '__ZN64_$LT$alloc..ffi..c_str..NulError$u20$as$u20$core..fmt..Debug$GT$3fmt17h6ea73b5fe397c88eE.1008', symObjAddr: 0x92F78, symBinAddr: 0x931E8, symSize: 0x48 }
  - { offset: 0xCAF2D, size: 0x8, addend: 0x0, symName: '__ZN5alloc11collections5btree3map25IntoIter$LT$K$C$V$C$A$GT$10dying_next17h41ff06ead482500eE', symObjAddr: 0x8641C, symBinAddr: 0x86CC8, symSize: 0x190 }
  - { offset: 0xCBC92, size: 0x8, addend: 0x0, symName: __ZN6object4read7archive13ArchiveMember5parse17h0b83a0f296a52c5cE, symObjAddr: 0x79D00, symBinAddr: 0x7A5AC, symSize: 0xBC8 }
  - { offset: 0xCD21D, size: 0x8, addend: 0x0, symName: '__ZN5gimli4read5dwarf14Dwarf$LT$R$GT$11attr_string17hda44e14bebe7ec07E', symObjAddr: 0x7CFF4, symBinAddr: 0x7D8A0, symSize: 0x1F4 }
  - { offset: 0xCDAD8, size: 0x8, addend: 0x0, symName: '__ZN5gimli4read5dwarf13Unit$LT$R$GT$3new17h52e4de0572aec21fE', symObjAddr: 0x88240, symBinAddr: 0x88A48, symSize: 0x1C8C }
  - { offset: 0xD18C0, size: 0x8, addend: 0x0, symName: '__ZN5gimli4read7aranges30ArangeHeader$LT$R$C$Offset$GT$5parse17he2b57c369afcd9e4E', symObjAddr: 0x878A0, symBinAddr: 0x880A8, symSize: 0x2B4 }
  - { offset: 0xD23F3, size: 0x8, addend: 0x0, symName: '__ZN5gimli4read4unit18Attribute$LT$R$GT$5value17h5b86182921bcb0b1E', symObjAddr: 0x81B50, symBinAddr: 0x823FC, symSize: 0x6B8 }
  - { offset: 0xD2BB6, size: 0x8, addend: 0x0, symName: '__ZN5gimli4read4unit22EntriesCursor$LT$R$GT$10next_entry17h2a4d1a6b48f7e48aE', symObjAddr: 0x86978, symBinAddr: 0x87224, symSize: 0x2F0 }
  - { offset: 0xD32A0, size: 0x8, addend: 0x0, symName: __ZN5gimli4read4unit15parse_attribute17h04b52307de5b261dE, symObjAddr: 0x7FE48, symBinAddr: 0x806F4, symSize: 0xF10 }
  - { offset: 0xD6242, size: 0x8, addend: 0x0, symName: '__ZN5gimli4read4unit32AttributeValue$LT$R$C$Offset$GT$11udata_value17hd0bc8c6fb1d6edc3E', symObjAddr: 0x85338, symBinAddr: 0x85BE4, symSize: 0x90 }
  - { offset: 0xD6257, size: 0x8, addend: 0x0, symName: __ZN5gimli4read4unit15skip_attributes17hecc6b242f72d92c9E, symObjAddr: 0x82208, symBinAddr: 0x82AB4, symSize: 0x5D8 }
  - { offset: 0xD6CF7, size: 0x8, addend: 0x0, symName: '__ZN5gimli4read4unit33DebugInfoUnitHeadersIter$LT$R$GT$4next17h032dab73c017dbe6E', symObjAddr: 0x87D1C, symBinAddr: 0x88524, symSize: 0x524 }
  - { offset: 0xD80EB, size: 0x8, addend: 0x0, symName: __ZN5gimli4read6reader6Reader12read_sleb12817hda340a9626db38c6E, symObjAddr: 0x7C2F8, symBinAddr: 0x7CBA4, symSize: 0x21C }
  - { offset: 0xD8211, size: 0x8, addend: 0x0, symName: __ZN5gimli4read6reader6Reader17read_sized_offset17h28ef1869069679b6E, symObjAddr: 0x853C8, symBinAddr: 0x85C74, symSize: 0xEC }
  - { offset: 0xD85FD, size: 0x8, addend: 0x0, symName: __ZN5gimli4read6reader6Reader11read_offset17he6e24d001cc955a9E, symObjAddr: 0x854B4, symBinAddr: 0x85D60, symSize: 0xBC }
  - { offset: 0xD8893, size: 0x8, addend: 0x0, symName: __ZN5gimli4read6reader6Reader12read_uleb12817h45a8a8eac9a97fa0E, symObjAddr: 0x8BAB8, symBinAddr: 0x8C20C, symSize: 0xA4 }
  - { offset: 0xD8C4E, size: 0x8, addend: 0x0, symName: '__ZN5gimli4read8rnglists20RngListIter$LT$R$GT$4next17h6f0f4fb29fc49217E', symObjAddr: 0x80D58, symBinAddr: 0x81604, symSize: 0xC28 }
  - { offset: 0xDB9AB, size: 0x8, addend: 0x0, symName: '__ZN5gimli4read5index18UnitIndex$LT$R$GT$5parse17heed456ba57e1446bE', symObjAddr: 0x8A400, symBinAddr: 0x8AB54, symSize: 0x6FC }
  - { offset: 0xDC167, size: 0x8, addend: 0x0, symName: '__ZN5gimli4read4line27FileEntry$LT$R$C$Offset$GT$5parse17hb8b28b0526d9305bE', symObjAddr: 0x8BFAC, symBinAddr: 0x8C700, symSize: 0x1F4 }
  - { offset: 0xDC4BF, size: 0x8, addend: 0x0, symName: __ZN5gimli4read4line15FileEntryFormat5parse17h722864984991e0a1E, symObjAddr: 0x8B800, symBinAddr: 0x8BF54, symSize: 0x2B8 }
  - { offset: 0xDCD5C, size: 0x8, addend: 0x0, symName: __ZN5gimli4read4line18parse_directory_v517h89760a067818548cE, symObjAddr: 0x8BB5C, symBinAddr: 0x8C2B0, symSize: 0xE4 }
  - { offset: 0xDCDF5, size: 0x8, addend: 0x0, symName: __ZN5gimli4read4line13parse_file_v517hfe0179bc1be16119E, symObjAddr: 0x8BD04, symBinAddr: 0x8C458, symSize: 0x2A8 }
  - { offset: 0xDCF81, size: 0x8, addend: 0x0, symName: __ZN5gimli4read4line15parse_attribute17h7c1a441d98581548E, symObjAddr: 0x8C1A0, symBinAddr: 0x8C8F4, symSize: 0x810 }
  - { offset: 0xDEDC3, size: 0x8, addend: 0x0, symName: '__ZN9addr2line4unit16ResUnit$LT$R$GT$25find_function_or_location28_$u7b$$u7b$closure$u7d$$u7d$17he0fd37f360aa0a3bE', symObjAddr: 0x7E748, symBinAddr: 0x7EFF4, symSize: 0x15CC }
  - { offset: 0xE2117, size: 0x8, addend: 0x0, symName: '__ZN9addr2line4unit16ResUnit$LT$R$GT$25find_function_or_location17hfa052480ac47e1c7E', symObjAddr: 0x7DE70, symBinAddr: 0x7E71C, symSize: 0x3E4 }
  - { offset: 0xE26CC, size: 0x8, addend: 0x0, symName: __ZN9addr2line4line9LazyLines6borrow17h165f4d886dd11ef9E, symObjAddr: 0x7A8C8, symBinAddr: 0x7B174, symSize: 0x1A30 }
  - { offset: 0xE6740, size: 0x8, addend: 0x0, symName: __ZN9addr2line4line11render_file17h115e896abc0fa95dE, symObjAddr: 0x7CAB4, symBinAddr: 0x7D360, symSize: 0x494 }
  - { offset: 0xE7173, size: 0x8, addend: 0x0, symName: '__ZN9addr2line6lookup30LoopingLookup$LT$T$C$L$C$F$GT$10new_lookup17h1448d3dfe9bf87bbE', symObjAddr: 0x7E254, symBinAddr: 0x7EB00, symSize: 0x428 }
  - { offset: 0xE7762, size: 0x8, addend: 0x0, symName: '__ZN9addr2line5frame18FrameIter$LT$R$GT$4next17h7add115a007b0ea8E', symObjAddr: 0x79A94, symBinAddr: 0x7A340, symSize: 0x26C }
  - { offset: 0xE7C6A, size: 0x8, addend: 0x0, symName: '__ZN9addr2line8function17Function$LT$R$GT$14parse_children17heb95cb480348a860E', symObjAddr: 0x82980, symBinAddr: 0x8322C, symSize: 0x1030 }
  - { offset: 0xE96EB, size: 0x8, addend: 0x0, symName: __ZN9addr2line8function9name_attr17h1ae862012653e1e2E, symObjAddr: 0x83B8C, symBinAddr: 0x84438, symSize: 0x288 }
  - { offset: 0xE99F2, size: 0x8, addend: 0x0, symName: __ZN9addr2line8function10name_entry17h268848d5bab0269bE, symObjAddr: 0x83E14, symBinAddr: 0x846C0, symSize: 0x3C8 }
  - { offset: 0xE9F06, size: 0x8, addend: 0x0, symName: _OUTLINED_FUNCTION_0, symObjAddr: 0x9A904, symBinAddr: 0x9A0E0, symSize: 0xC }
  - { offset: 0xE9F1E, size: 0x8, addend: 0x0, symName: _OUTLINED_FUNCTION_1, symObjAddr: 0x9A910, symBinAddr: 0x9A0EC, symSize: 0x8 }
  - { offset: 0xE9F36, size: 0x8, addend: 0x0, symName: _OUTLINED_FUNCTION_2, symObjAddr: 0x9A918, symBinAddr: 0x9A0F4, symSize: 0xC }
  - { offset: 0xE9F4E, size: 0x8, addend: 0x0, symName: _OUTLINED_FUNCTION_3, symObjAddr: 0x9A924, symBinAddr: 0x9A100, symSize: 0xC }
  - { offset: 0xE9F66, size: 0x8, addend: 0x0, symName: _OUTLINED_FUNCTION_4, symObjAddr: 0x9A930, symBinAddr: 0x9A10C, symSize: 0xC }
  - { offset: 0xE9F7E, size: 0x8, addend: 0x0, symName: _OUTLINED_FUNCTION_5, symObjAddr: 0x9A93C, symBinAddr: 0x9A118, symSize: 0x8 }
  - { offset: 0xE9F96, size: 0x8, addend: 0x0, symName: _OUTLINED_FUNCTION_6, symObjAddr: 0x9A944, symBinAddr: 0x9A120, symSize: 0x8 }
  - { offset: 0xE9FAE, size: 0x8, addend: 0x0, symName: _OUTLINED_FUNCTION_7, symObjAddr: 0x9A94C, symBinAddr: 0x9A128, symSize: 0x20 }
  - { offset: 0xE9FC6, size: 0x8, addend: 0x0, symName: _OUTLINED_FUNCTION_8, symObjAddr: 0x9A96C, symBinAddr: 0x9A148, symSize: 0x20 }
  - { offset: 0xE9FDE, size: 0x8, addend: 0x0, symName: _OUTLINED_FUNCTION_9, symObjAddr: 0x9A98C, symBinAddr: 0x9A168, symSize: 0xC }
  - { offset: 0xE9FF6, size: 0x8, addend: 0x0, symName: _OUTLINED_FUNCTION_10, symObjAddr: 0x9A998, symBinAddr: 0x9A174, symSize: 0x8 }
  - { offset: 0xEA00E, size: 0x8, addend: 0x0, symName: _OUTLINED_FUNCTION_11, symObjAddr: 0x9A9A0, symBinAddr: 0x9A17C, symSize: 0x8 }
  - { offset: 0xEA026, size: 0x8, addend: 0x0, symName: _OUTLINED_FUNCTION_12, symObjAddr: 0x9A9A8, symBinAddr: 0x9A184, symSize: 0x10 }
  - { offset: 0xEA03E, size: 0x8, addend: 0x0, symName: _OUTLINED_FUNCTION_13, symObjAddr: 0x9A9B8, symBinAddr: 0x9A194, symSize: 0x10 }
  - { offset: 0xEA056, size: 0x8, addend: 0x0, symName: _OUTLINED_FUNCTION_14, symObjAddr: 0x9A9C8, symBinAddr: 0x9A1A4, symSize: 0x8 }
  - { offset: 0xEA06E, size: 0x8, addend: 0x0, symName: _OUTLINED_FUNCTION_15, symObjAddr: 0x9A9D0, symBinAddr: 0x9A1AC, symSize: 0x8 }
  - { offset: 0xEA086, size: 0x8, addend: 0x0, symName: _OUTLINED_FUNCTION_17, symObjAddr: 0x9A9E8, symBinAddr: 0x9A1C4, symSize: 0x8 }
  - { offset: 0xEA09E, size: 0x8, addend: 0x0, symName: _OUTLINED_FUNCTION_18, symObjAddr: 0x9A9F0, symBinAddr: 0x9A1CC, symSize: 0x10 }
  - { offset: 0xEA0B6, size: 0x8, addend: 0x0, symName: _OUTLINED_FUNCTION_19, symObjAddr: 0x9AA00, symBinAddr: 0x9A1DC, symSize: 0x8 }
  - { offset: 0xEA0CE, size: 0x8, addend: 0x0, symName: _OUTLINED_FUNCTION_20, symObjAddr: 0x9AA08, symBinAddr: 0x9A1E4, symSize: 0x8 }
  - { offset: 0xEA0E6, size: 0x8, addend: 0x0, symName: _OUTLINED_FUNCTION_21, symObjAddr: 0x9AA10, symBinAddr: 0x9A1EC, symSize: 0x10 }
  - { offset: 0xEA0FE, size: 0x8, addend: 0x0, symName: _OUTLINED_FUNCTION_22, symObjAddr: 0x9AA20, symBinAddr: 0x9A1FC, symSize: 0x18 }
  - { offset: 0xEA116, size: 0x8, addend: 0x0, symName: _OUTLINED_FUNCTION_23, symObjAddr: 0x9AA38, symBinAddr: 0x9A214, symSize: 0xC }
  - { offset: 0xEA12E, size: 0x8, addend: 0x0, symName: _OUTLINED_FUNCTION_24, symObjAddr: 0x9AA44, symBinAddr: 0x9A220, symSize: 0xC }
  - { offset: 0xEA146, size: 0x8, addend: 0x0, symName: _OUTLINED_FUNCTION_25, symObjAddr: 0x9AA50, symBinAddr: 0x9A22C, symSize: 0x8 }
  - { offset: 0xEA15E, size: 0x8, addend: 0x0, symName: _OUTLINED_FUNCTION_26, symObjAddr: 0x9AA58, symBinAddr: 0x9A234, symSize: 0xC }
  - { offset: 0xEA176, size: 0x8, addend: 0x0, symName: _OUTLINED_FUNCTION_27, symObjAddr: 0x9AA64, symBinAddr: 0x9A240, symSize: 0xC }
  - { offset: 0xEA18E, size: 0x8, addend: 0x0, symName: _OUTLINED_FUNCTION_28, symObjAddr: 0x9AA70, symBinAddr: 0x9A24C, symSize: 0xC }
  - { offset: 0xEA1A6, size: 0x8, addend: 0x0, symName: _OUTLINED_FUNCTION_29, symObjAddr: 0x9AA7C, symBinAddr: 0x9A258, symSize: 0xC }
  - { offset: 0xEA1BE, size: 0x8, addend: 0x0, symName: _OUTLINED_FUNCTION_30, symObjAddr: 0x9AA88, symBinAddr: 0x9A264, symSize: 0xC }
  - { offset: 0xEA1D6, size: 0x8, addend: 0x0, symName: _OUTLINED_FUNCTION_31, symObjAddr: 0x9AA94, symBinAddr: 0x9A270, symSize: 0xC }
  - { offset: 0xEA1EE, size: 0x8, addend: 0x0, symName: _OUTLINED_FUNCTION_32, symObjAddr: 0x9AAA0, symBinAddr: 0x9A27C, symSize: 0xC }
  - { offset: 0xEA206, size: 0x8, addend: 0x0, symName: _OUTLINED_FUNCTION_34, symObjAddr: 0x9AAB8, symBinAddr: 0x9A294, symSize: 0x14 }
  - { offset: 0xEA21E, size: 0x8, addend: 0x0, symName: _OUTLINED_FUNCTION_35, symObjAddr: 0x9AACC, symBinAddr: 0x9A2A8, symSize: 0x14 }
...
